	.text
	.syntax unified
	.eabi_attribute	67, "2.09"	@ Tag_conformance
	.cpu	cortex-m55
	.eabi_attribute	6, 21	@ Tag_CPU_arch
	.eabi_attribute	7, 77	@ Tag_CPU_arch_profile
	.eabi_attribute	8, 0	@ Tag_ARM_ISA_use
	.eabi_attribute	9, 3	@ Tag_THUMB_ISA_use
	.fpu	fpv5-d16
	.arch_extension	mve.fp
	.eabi_attribute	36, 1	@ Tag_FP_HP_extension
	.eabi_attribute	48, 2	@ Tag_MVE_arch
	.eabi_attribute	46, 1	@ Tag_DSP_extension
	.eabi_attribute	34, 1	@ Tag_CPU_unaligned_access
	.eabi_attribute	17, 1	@ Tag_ABI_PCS_GOT_use
	.eabi_attribute	20, 2	@ Tag_ABI_FP_denormal
	.eabi_attribute	21, 0	@ Tag_ABI_FP_exceptions
	.eabi_attribute	23, 1	@ Tag_ABI_FP_number_model
	.eabi_attribute	24, 1	@ Tag_ABI_align_needed
	.eabi_attribute	25, 1	@ Tag_ABI_align_preserved
	.eabi_attribute	28, 1	@ Tag_ABI_VFP_args
	.eabi_attribute	38, 1	@ Tag_ABI_FP_16bit_format
	.eabi_attribute	18, 2	@ Tag_ABI_PCS_wchar_t
	.eabi_attribute	26, 1	@ Tag_ABI_enum_size
	.eabi_attribute	14, 0	@ Tag_ABI_PCS_R9_use
	.file	"ExerciseClassifierModel.cpp"
	.file	1 "C:\\Users\\eding\\Downloads\\aifitnessmirrordemo-main\\aifitnessmirrordemo-main\\keil_firmware\\SampleCode\\MachineLearning\\AIFitnessMirror\\KEIL" "ExerciseClassifierModel.cpp"
	.file	2 "C:\\Users\\eding\\Downloads\\aifitnessmirrordemo-main\\aifitnessmirrordemo-main\\keil_firmware\\SampleCode\\MachineLearning\\AIFitnessMirror\\KEIL" "../../../../ThirdParty/tflite_micro\\tensorflow/lite/micro/micro_mutable_op_resolver.h"
	.file	3 "C:\\Users\\eding\\Downloads\\aifitnessmirrordemo-main\\aifitnessmirrordemo-main\\keil_firmware\\SampleCode\\MachineLearning\\AIFitnessMirror\\KEIL" "../../../../ThirdParty/tflite_micro\\tensorflow/lite/core/c/c_api_types.h"
	.file	4 "C:\\Users\\eding\\Downloads\\aifitnessmirrordemo-main\\aifitnessmirrordemo-main\\keil_firmware\\SampleCode\\MachineLearning\\AIFitnessMirror\\KEIL" "../../../../ThirdParty/tflite_micro\\tensorflow/lite/core/c/common.h"
	.file	5 "C:\\Users\\eding" "AppData\\Local\\Keil_v5\\ARM\\ARMCLANG\\bin\\..\\include\\wchar.h"
	.file	6 "C:\\Users\\eding" "AppData\\Local\\Keil_v5\\ARM\\ARMCLANG\\bin\\..\\include\\libcxx\\new"
	.file	7 "C:\\Users\\eding" "AppData\\Local\\Keil_v5\\ARM\\ARMCLANG\\bin\\..\\include\\stdint.h"
	.file	8 "C:\\Users\\eding\\Downloads\\aifitnessmirrordemo-main\\aifitnessmirrordemo-main\\keil_firmware\\SampleCode\\MachineLearning\\AIFitnessMirror\\KEIL" "../../../../ThirdParty/tflite_micro\\tensorflow/lite/schema/schema_generated.h"
	.file	9 "C:\\Users\\eding" "AppData\\Local\\Keil_v5\\ARM\\ARMCLANG\\bin\\..\\include\\libcxx\\vector"
	.file	10 "C:\\Users\\eding" "AppData\\Local\\Keil_v5\\ARM\\ARMCLANG\\bin\\..\\include\\stddef.h"
	.file	11 "C:\\Users\\eding" "AppData\\Local\\Keil_v5\\ARM\\ARMCLANG\\bin\\..\\include\\libcxx\\__memory\\allocator.h"
	.file	12 "C:\\Users\\eding" "AppData\\Local\\Keil_v5\\ARM\\ARMCLANG\\bin\\..\\include\\time.h"
	.file	13 "C:\\Users\\eding" "AppData\\Local\\Keil_v5\\ARM\\ARMCLANG\\bin\\..\\include\\libcxx\\__memory\\allocator_traits.h"
	.file	14 "C:\\Users\\eding" "AppData\\Local\\Keil_v5\\ARM\\ARMCLANG\\bin\\..\\include\\libcxx\\__memory\\compressed_pair.h"
	.file	15 "C:\\Users\\eding" "AppData\\Local\\Keil_v5\\ARM\\ARMCLANG\\bin\\..\\include\\libcxx\\__memory\\unique_ptr.h"
	.file	16 "C:\\Users\\eding" "AppData\\Local\\Keil_v5\\ARM\\ARMCLANG\\bin\\..\\include\\libcxx\\stddef.h"
	.file	17 "C:\\Users\\eding" "AppData\\Local\\Keil_v5\\ARM\\ARMCLANG\\bin\\..\\include\\libcxx\\__type_traits\\add_lvalue_reference.h"
	.file	18 "C:\\Users\\eding" "AppData\\Local\\Keil_v5\\ARM\\ARMCLANG\\bin\\..\\include\\libcxx\\__string\\char_traits.h"
	.file	19 "C:\\Users\\eding" "AppData\\Local\\Keil_v5\\ARM\\ARMCLANG\\bin\\..\\include\\libcxx\\string_view"
	.section	.text._ZN3arm3app23ExerciseClassifierModel13GetOpResolverEv,"ax",%progbits
	.hidden	_ZN3arm3app23ExerciseClassifierModel13GetOpResolverEv @ -- Begin function _ZN3arm3app23ExerciseClassifierModel13GetOpResolverEv
	.globl	_ZN3arm3app23ExerciseClassifierModel13GetOpResolverEv
	.p2align	2
	.type	_ZN3arm3app23ExerciseClassifierModel13GetOpResolverEv,%function
	.code	16                              @ @_ZN3arm3app23ExerciseClassifierModel13GetOpResolverEv
	.thumb_func
_ZN3arm3app23ExerciseClassifierModel13GetOpResolverEv:
.Lfunc_begin0:
	.fnstart
	.cfi_sections .debug_frame
	.cfi_startproc
@ %bb.0:
	@DEBUG_VALUE: GetOpResolver:this <- $r0
	.loc	1 6 18 prologue_end             @ ExerciseClassifierModel.cpp:6:18
	adds	r0, #56
.Ltmp0:
	@DEBUG_VALUE: GetOpResolver:this <- [DW_OP_LLVM_entry_value 1] $r0
	.loc	1 6 5 is_stmt 0                 @ ExerciseClassifierModel.cpp:6:5
	bx	lr
.Ltmp1:
.Lfunc_end0:
	.size	_ZN3arm3app23ExerciseClassifierModel13GetOpResolverEv, .Lfunc_end0-_ZN3arm3app23ExerciseClassifierModel13GetOpResolverEv
	.cfi_endproc
	.file	20 "C:\\Users\\eding\\Downloads\\aifitnessmirrordemo-main\\aifitnessmirrordemo-main\\keil_firmware\\SampleCode\\MachineLearning\\AIFitnessMirror\\KEIL" "../Model/include\\ExerciseClassifierModel.hpp"
	.cantunwind
	.fnend
                                        @ -- End function
	.section	.text._ZN3arm3app23ExerciseClassifierModel16EnlistOperationsEv,"ax",%progbits
	.hidden	_ZN3arm3app23ExerciseClassifierModel16EnlistOperationsEv @ -- Begin function _ZN3arm3app23ExerciseClassifierModel16EnlistOperationsEv
	.globl	_ZN3arm3app23ExerciseClassifierModel16EnlistOperationsEv
	.p2align	2
	.type	_ZN3arm3app23ExerciseClassifierModel16EnlistOperationsEv,%function
	.code	16                              @ @_ZN3arm3app23ExerciseClassifierModel16EnlistOperationsEv
	.thumb_func
_ZN3arm3app23ExerciseClassifierModel16EnlistOperationsEv:
.Lfunc_begin1:
	.loc	1 10 0 is_stmt 1                @ ExerciseClassifierModel.cpp:10:0
	.fnstart
	.cfi_startproc
@ %bb.0:
	@DEBUG_VALUE: EnlistOperations:this <- $r0
	.save	{r4, r5, r7, lr}
	push	{r4, r5, r7, lr}
	.cfi_def_cfa_offset 16
	.cfi_offset lr, -4
	.cfi_offset r7, -8
	.cfi_offset r5, -12
	.cfi_offset r4, -16
	.pad	#32
	sub	sp, #32
	.cfi_def_cfa_offset 48
.Ltmp2:
	.loc	1 12 11 prologue_end            @ ExerciseClassifierModel.cpp:12:11
	add.w	r4, r0, #56
	.loc	1 12 24 is_stmt 0               @ ExerciseClassifierModel.cpp:12:24
	mov	r0, r4
.Ltmp3:
	@DEBUG_VALUE: EnlistOperations:this <- [DW_OP_LLVM_entry_value 1] $r0
	bl	_ZN6tflite22MicroMutableOpResolverILj6EE15AddStridedSliceEv
.Ltmp4:
	.loc	1 13 24 is_stmt 1               @ ExerciseClassifierModel.cpp:13:24
	mov	r0, r4
	bl	_ZN6tflite22MicroMutableOpResolverILj6EE7AddPackEv
.Ltmp5:
	.loc	1 14 24                         @ ExerciseClassifierModel.cpp:14:24
	mov	r0, r4
	bl	_ZN6tflite22MicroMutableOpResolverILj6EE10AddReshapeEv
.Ltmp6:
	.loc	1 0 24 is_stmt 0                @ ExerciseClassifierModel.cpp:0:24
	add	r5, sp, #4
	.loc	1 17 24 is_stmt 1               @ ExerciseClassifierModel.cpp:17:24
	mov	r0, r5
	bl	_ZN6tflite16Register_SOFTMAXEv
.Ltmp7:
	mov	r0, r4
	mov	r1, r5
	bl	_ZN6tflite22MicroMutableOpResolverILj6EE10AddSoftmaxERK16TFLMRegistration
.Ltmp8:
	.loc	1 20 41                         @ ExerciseClassifierModel.cpp:20:41
	mov	r0, r4
	bl	_ZN6tflite22MicroMutableOpResolverILj6EE9AddEthosUEv
.Ltmp9:
	mov	r4, r0
.Ltmp10:
	.loc	1 20 9 is_stmt 0                @ ExerciseClassifierModel.cpp:20:9
	cbz	r0, .LBB1_2
.Ltmp11:
@ %bb.1:
	@DEBUG_VALUE: EnlistOperations:this <- [DW_OP_LLVM_entry_value 1] $r0
	.loc	1 26 9 is_stmt 1                @ ExerciseClassifierModel.cpp:26:9
	adr	r0, .LCPI1_0
	bl	__2printf
.Ltmp12:
	adr	r0, .LCPI1_1
	bl	__2printf
.Ltmp13:
	.loc	1 0 9 is_stmt 0                 @ ExerciseClassifierModel.cpp:0:9
	b	.LBB1_3
.Ltmp14:
.LBB1_2:
	@DEBUG_VALUE: EnlistOperations:this <- [DW_OP_LLVM_entry_value 1] $r0
	.loc	1 22 9 is_stmt 1                @ ExerciseClassifierModel.cpp:22:9
	adr	r0, .LCPI1_2
	bl	__2printf
.Ltmp15:
	bl	_ZN6tflite16GetString_ETHOSUEv
.Ltmp16:
	mov	r1, r0
	adr	r0, .LCPI1_3
	bl	__2printf
.Ltmp17:
.LBB1_3:
	@DEBUG_VALUE: EnlistOperations:this <- [DW_OP_LLVM_entry_value 1] $r0
	.loc	1 20 19                         @ ExerciseClassifierModel.cpp:20:19
	cmp	r4, #0
	cset	r0, eq
.Ltmp18:
	.loc	1 32 1 epilogue_begin           @ ExerciseClassifierModel.cpp:32:1
	add	sp, #32
	pop	{r4, r5, r7, pc}
.Ltmp19:
	.loc	1 0 1 is_stmt 0                 @ :0:1
.Ltmp20:
	.p2align	2
@ %bb.4:
.LCPI1_0:
.L.str.2:
	.asciz	"ERROR - \000\000\000"
.LCPI1_1:
.L.str.3:
	.asciz	"Failed to add Arm NPU support to op resolver.\000\000"
.LCPI1_2:
.L.str:
	.asciz	"INFO - "
.LCPI1_3:
.L.str.1:
	.asciz	"Added %s support to op resolver\n\000\000\000"
.Lfunc_end1:
	.size	_ZN3arm3app23ExerciseClassifierModel16EnlistOperationsEv, .Lfunc_end1-_ZN3arm3app23ExerciseClassifierModel16EnlistOperationsEv
	.cfi_endproc
	.cantunwind
	.fnend
                                        @ -- End function
	.section	.text._ZN6tflite22MicroMutableOpResolverILj6EE15AddStridedSliceEv,"axG",%progbits,_ZN6tflite22MicroMutableOpResolverILj6EE15AddStridedSliceEv,comdat
	.hidden	_ZN6tflite22MicroMutableOpResolverILj6EE15AddStridedSliceEv @ -- Begin function _ZN6tflite22MicroMutableOpResolverILj6EE15AddStridedSliceEv
	.weak	_ZN6tflite22MicroMutableOpResolverILj6EE15AddStridedSliceEv
	.p2align	2
	.type	_ZN6tflite22MicroMutableOpResolverILj6EE15AddStridedSliceEv,%function
	.code	16                              @ @_ZN6tflite22MicroMutableOpResolverILj6EE15AddStridedSliceEv
	.thumb_func
_ZN6tflite22MicroMutableOpResolverILj6EE15AddStridedSliceEv:
.Lfunc_begin2:
	.loc	2 603 0 is_stmt 1               @ ../../../../ThirdParty/tflite_micro\tensorflow/lite/micro/micro_mutable_op_resolver.h:603:0
	.fnstart
	.cfi_startproc
@ %bb.0:
	@DEBUG_VALUE: AddStridedSlice:this <- $r0
	.save	{r4, r5, r6, lr}
	push	{r4, r5, r6, lr}
	.cfi_def_cfa_offset 16
	.cfi_offset lr, -4
	.cfi_offset r6, -8
	.cfi_offset r5, -12
	.cfi_offset r4, -16
	.pad	#32
	sub	sp, #32
	.cfi_def_cfa_offset 48
	mov	r4, r0
.Ltmp21:
	@DEBUG_VALUE: AddStridedSlice:this <- $r4
	@DEBUG_VALUE: AddStridedSlice:this <- $r4
	add	r0, sp, #4
.Ltmp22:
	.loc	2 604 54 prologue_end           @ ../../../../ThirdParty/tflite_micro\tensorflow/lite/micro/micro_mutable_op_resolver.h:604:54
	bl	_ZN6tflite22Register_STRIDED_SLICEEv
.Ltmp23:
	@DEBUG_VALUE: AddBuiltin:registration <- [DW_OP_plus_uconst 4, DW_OP_stack_value] $sp
	@DEBUG_VALUE: AddBuiltin:op <- 45
	@DEBUG_VALUE: AddBuiltin:this <- $r4
	.loc	2 682 9                         @ ../../../../ThirdParty/tflite_micro\tensorflow/lite/micro/micro_mutable_op_resolver.h:682:9
	ldr	r0, [r4]
	movs	r1, #45
	ldr	r2, [r0]
	mov	r0, r4
	blx	r2
.Ltmp24:
	@DEBUG_VALUE: AddBuiltin:parser <- undef
	.loc	2 682 9 is_stmt 0               @ ../../../../ThirdParty/tflite_micro\tensorflow/lite/micro/micro_mutable_op_resolver.h:682:9
	cbz	r0, .LBB2_2
.Ltmp25:
@ %bb.1:
	@DEBUG_VALUE: AddBuiltin:this <- $r4
	@DEBUG_VALUE: AddBuiltin:op <- 45
	@DEBUG_VALUE: AddBuiltin:registration <- [DW_OP_plus_uconst 4, DW_OP_stack_value] $sp
	@DEBUG_VALUE: AddStridedSlice:this <- $r4
	.loc	2 683 7 is_stmt 1               @ ../../../../ThirdParty/tflite_micro\tensorflow/lite/micro/micro_mutable_op_resolver.h:683:7
	movw	r0, :lower16:.L.str.6
	movt	r0, :upper16:.L.str.6
	bl	_Z11MicroPrintfPKcz
.Ltmp26:
	.loc	2 684 7                         @ ../../../../ThirdParty/tflite_micro\tensorflow/lite/micro/micro_mutable_op_resolver.h:684:7
	movw	r0, :lower16:.L.str.7
	movs	r1, #45
	movt	r0, :upper16:.L.str.7
	b	.LBB2_4
.Ltmp27:
.LBB2_2:
	@DEBUG_VALUE: AddBuiltin:this <- $r4
	@DEBUG_VALUE: AddBuiltin:op <- 45
	@DEBUG_VALUE: AddBuiltin:registration <- [DW_OP_plus_uconst 4, DW_OP_stack_value] $sp
	@DEBUG_VALUE: AddStridedSlice:this <- $r4
	.loc	2 688 9                         @ ../../../../ThirdParty/tflite_micro\tensorflow/lite/micro/micro_mutable_op_resolver.h:688:9
	ldr.w	r0, [r4, #172]
.Ltmp28:
	.loc	2 688 9 is_stmt 0               @ ../../../../ThirdParty/tflite_micro\tensorflow/lite/micro/micro_mutable_op_resolver.h:688:9
	cmp	r0, #6
	blo	.LBB2_5
.Ltmp29:
@ %bb.3:
	@DEBUG_VALUE: AddBuiltin:this <- $r4
	@DEBUG_VALUE: AddBuiltin:op <- 45
	@DEBUG_VALUE: AddBuiltin:registration <- [DW_OP_plus_uconst 4, DW_OP_stack_value] $sp
	@DEBUG_VALUE: AddStridedSlice:this <- $r4
	.loc	2 689 7 is_stmt 1               @ ../../../../ThirdParty/tflite_micro\tensorflow/lite/micro/micro_mutable_op_resolver.h:689:7
	movw	r0, :lower16:.L.str.8
	movs	r1, #45
	movt	r0, :upper16:.L.str.8
	bl	_Z11MicroPrintfPKcz
.Ltmp30:
	.loc	2 690 7                         @ ../../../../ThirdParty/tflite_micro\tensorflow/lite/micro/micro_mutable_op_resolver.h:690:7
	movw	r0, :lower16:.L.str.9
	movs	r1, #6
	movt	r0, :upper16:.L.str.9
.Ltmp31:
.LBB2_4:
	@DEBUG_VALUE: AddBuiltin:this <- $r4
	@DEBUG_VALUE: AddBuiltin:op <- 45
	@DEBUG_VALUE: AddBuiltin:registration <- [DW_OP_plus_uconst 4, DW_OP_stack_value] $sp
	@DEBUG_VALUE: AddStridedSlice:this <- $r4
	.loc	2 0 0 is_stmt 0                 @ ../../../../ThirdParty/tflite_micro\tensorflow/lite/micro/micro_mutable_op_resolver.h:0:0
	bl	_Z11MicroPrintfPKcz
.Ltmp32:
	movs	r0, #1
.Ltmp33:
	.loc	2 604 5 epilogue_begin is_stmt 1 @ ../../../../ThirdParty/tflite_micro\tensorflow/lite/micro/micro_mutable_op_resolver.h:604:5
	add	sp, #32
	pop	{r4, r5, r6, pc}
.Ltmp34:
.LBB2_5:
	@DEBUG_VALUE: AddBuiltin:this <- $r4
	@DEBUG_VALUE: AddBuiltin:op <- 45
	@DEBUG_VALUE: AddBuiltin:registration <- [DW_OP_plus_uconst 4, DW_OP_stack_value] $sp
	@DEBUG_VALUE: AddStridedSlice:this <- $r4
	.loc	2 694 40                        @ ../../../../ThirdParty/tflite_micro\tensorflow/lite/micro/micro_mutable_op_resolver.h:694:40
	add.w	lr, sp, #4
	.loc	2 694 5 is_stmt 0               @ ../../../../ThirdParty/tflite_micro\tensorflow/lite/micro/micro_mutable_op_resolver.h:694:5
	adds	r1, r4, #4
	rsb	r0, r0, r0, lsl #3
	.loc	2 694 40                        @ ../../../../ThirdParty/tflite_micro\tensorflow/lite/micro/micro_mutable_op_resolver.h:694:40
	ldm.w	lr, {r3, r12, lr}
	.loc	2 694 5                         @ ../../../../ThirdParty/tflite_micro\tensorflow/lite/micro/micro_mutable_op_resolver.h:694:5
	add.w	r2, r1, r0, lsl #2
	.loc	2 694 40                        @ ../../../../ThirdParty/tflite_micro\tensorflow/lite/micro/micro_mutable_op_resolver.h:694:40
	str.w	r3, [r1, r0, lsl #2]
	ldrd	r3, r0, [sp, #20]
	ldr	r5, [sp, #16]
	ldr	r6, [sp, #28]
	strd	r12, lr, [r2, #4]
	strd	r5, r3, [r2, #12]
	strd	r0, r6, [r2, #20]
	.loc	2 697 20 is_stmt 1              @ ../../../../ThirdParty/tflite_micro\tensorflow/lite/micro/micro_mutable_op_resolver.h:697:20
	ldr.w	r0, [r4, #172]
	.loc	2 700 20                        @ ../../../../ThirdParty/tflite_micro\tensorflow/lite/micro/micro_mutable_op_resolver.h:700:20
	ldr.w	r3, [r4, #224]
	.loc	2 697 40                        @ ../../../../ThirdParty/tflite_micro\tensorflow/lite/micro/micro_mutable_op_resolver.h:697:40
	rsb	r2, r0, r0, lsl #3
	.loc	2 698 23                        @ ../../../../ThirdParty/tflite_micro\tensorflow/lite/micro/micro_mutable_op_resolver.h:698:23
	adds	r0, #1
	.loc	2 697 40                        @ ../../../../ThirdParty/tflite_micro\tensorflow/lite/micro/micro_mutable_op_resolver.h:697:40
	add.w	r1, r1, r2, lsl #2
	movs	r2, #45
	.loc	2 698 23                        @ ../../../../ThirdParty/tflite_micro\tensorflow/lite/micro/micro_mutable_op_resolver.h:698:23
	str.w	r0, [r4, #172]
	.loc	2 697 53                        @ ../../../../ThirdParty/tflite_micro\tensorflow/lite/micro/micro_mutable_op_resolver.h:697:53
	str	r2, [r1, #20]
	.loc	2 701 39                        @ ../../../../ThirdParty/tflite_micro\tensorflow/lite/micro/micro_mutable_op_resolver.h:701:39
	movw	r0, :lower16:_ZN6tflite17ParseStridedSliceEPKNS_8OperatorEPNS_13ErrorReporterEPNS_20BuiltinDataAllocatorEPPv
	.loc	2 700 5                         @ ../../../../ThirdParty/tflite_micro\tensorflow/lite/micro/micro_mutable_op_resolver.h:700:5
	add.w	r1, r4, r3, lsl #2
	.loc	2 701 39                        @ ../../../../ThirdParty/tflite_micro\tensorflow/lite/micro/micro_mutable_op_resolver.h:701:39
	movt	r0, :upper16:_ZN6tflite17ParseStridedSliceEPKNS_8OperatorEPNS_13ErrorReporterEPNS_20BuiltinDataAllocatorEPPv
	str.w	r0, [r1, #200]
	.loc	2 702 20                        @ ../../../../ThirdParty/tflite_micro\tensorflow/lite/micro/micro_mutable_op_resolver.h:702:20
	adds	r0, r3, #1
	.loc	2 700 37                        @ ../../../../ThirdParty/tflite_micro\tensorflow/lite/micro/micro_mutable_op_resolver.h:700:37
	str.w	r2, [r1, #176]
	.loc	2 702 20                        @ ../../../../ThirdParty/tflite_micro\tensorflow/lite/micro/micro_mutable_op_resolver.h:702:20
	str.w	r0, [r4, #224]
	movs	r0, #0
.Ltmp35:
	.loc	2 604 5 epilogue_begin          @ ../../../../ThirdParty/tflite_micro\tensorflow/lite/micro/micro_mutable_op_resolver.h:604:5
	add	sp, #32
	pop	{r4, r5, r6, pc}
.Ltmp36:
.Lfunc_end2:
	.size	_ZN6tflite22MicroMutableOpResolverILj6EE15AddStridedSliceEv, .Lfunc_end2-_ZN6tflite22MicroMutableOpResolverILj6EE15AddStridedSliceEv
	.cfi_endproc
	.file	21 "C:\\Users\\eding\\Downloads\\aifitnessmirrordemo-main\\aifitnessmirrordemo-main\\keil_firmware\\SampleCode\\MachineLearning\\AIFitnessMirror\\KEIL" "../../../../ThirdParty/tflite_micro\\tensorflow/lite/micro/micro_common.h"
	.file	22 "C:\\Users\\eding\\Downloads\\aifitnessmirrordemo-main\\aifitnessmirrordemo-main\\keil_firmware\\SampleCode\\MachineLearning\\AIFitnessMirror\\KEIL" "../../../../ThirdParty/tflite_micro/_deps/tensorflow-flatbuffers-src/include\\flatbuffers/flatbuffers.h"
	.file	23 "C:\\Users\\eding\\Downloads\\aifitnessmirrordemo-main\\aifitnessmirrordemo-main\\keil_firmware\\SampleCode\\MachineLearning\\AIFitnessMirror\\KEIL" "../../../../ThirdParty/tflite_micro/_deps/tensorflow-flatbuffers-src/include\\flatbuffers/flatbuffer_builder.h"
	.file	24 "C:\\Users\\eding\\Downloads\\aifitnessmirrordemo-main\\aifitnessmirrordemo-main\\keil_firmware\\SampleCode\\MachineLearning\\AIFitnessMirror\\KEIL" "../../../../ThirdParty/tflite_micro/_deps/tensorflow-flatbuffers-src/include\\flatbuffers/string.h"
	.file	25 "C:\\Users\\eding" "AppData\\Local\\Keil_v5\\ARM\\ARMCLANG\\bin\\..\\include\\libcxx\\__fwd\\string.h"
	.file	26 "C:\\Users\\eding" "AppData\\Local\\Keil_v5\\ARM\\ARMCLANG\\bin\\..\\include\\libcxx\\__fwd\\string_view.h"
	.file	27 "C:\\Users\\eding\\Downloads\\aifitnessmirrordemo-main\\aifitnessmirrordemo-main\\keil_firmware\\SampleCode\\MachineLearning\\AIFitnessMirror\\KEIL" "../../../../ThirdParty/tflite_micro/_deps/tensorflow-flatbuffers-src/include\\flatbuffers/base.h"
	.file	28 "C:\\Users\\eding\\Downloads\\aifitnessmirrordemo-main\\aifitnessmirrordemo-main\\keil_firmware\\SampleCode\\MachineLearning\\AIFitnessMirror\\KEIL" "../../../../ThirdParty/tflite_micro\\tensorflow/lite/micro/tflite_bridge/flatbuffer_conversions_bridge.h"
	.cantunwind
	.fnend
                                        @ -- End function
	.section	.text._ZN6tflite22MicroMutableOpResolverILj6EE7AddPackEv,"axG",%progbits,_ZN6tflite22MicroMutableOpResolverILj6EE7AddPackEv,comdat
	.hidden	_ZN6tflite22MicroMutableOpResolverILj6EE7AddPackEv @ -- Begin function _ZN6tflite22MicroMutableOpResolverILj6EE7AddPackEv
	.weak	_ZN6tflite22MicroMutableOpResolverILj6EE7AddPackEv
	.p2align	2
	.type	_ZN6tflite22MicroMutableOpResolverILj6EE7AddPackEv,%function
	.code	16                              @ @_ZN6tflite22MicroMutableOpResolverILj6EE7AddPackEv
	.thumb_func
_ZN6tflite22MicroMutableOpResolverILj6EE7AddPackEv:
.Lfunc_begin3:
	.loc	2 460 0                         @ ../../../../ThirdParty/tflite_micro\tensorflow/lite/micro/micro_mutable_op_resolver.h:460:0
	.fnstart
	.cfi_startproc
@ %bb.0:
	@DEBUG_VALUE: AddPack:this <- $r0
	.save	{r4, r5, r6, lr}
	push	{r4, r5, r6, lr}
	.cfi_def_cfa_offset 16
	.cfi_offset lr, -4
	.cfi_offset r6, -8
	.cfi_offset r5, -12
	.cfi_offset r4, -16
	.pad	#32
	sub	sp, #32
	.cfi_def_cfa_offset 48
	mov	r4, r0
.Ltmp37:
	@DEBUG_VALUE: AddPack:this <- $r4
	@DEBUG_VALUE: AddPack:this <- $r4
	add	r0, sp, #4
.Ltmp38:
	.loc	2 461 45 prologue_end           @ ../../../../ThirdParty/tflite_micro\tensorflow/lite/micro/micro_mutable_op_resolver.h:461:45
	bl	_ZN6tflite13Register_PACKEv
.Ltmp39:
	@DEBUG_VALUE: AddBuiltin:registration <- [DW_OP_plus_uconst 4, DW_OP_stack_value] $sp
	@DEBUG_VALUE: AddBuiltin:op <- 83
	@DEBUG_VALUE: AddBuiltin:this <- $r4
	.loc	2 682 9                         @ ../../../../ThirdParty/tflite_micro\tensorflow/lite/micro/micro_mutable_op_resolver.h:682:9
	ldr	r0, [r4]
	movs	r1, #83
	ldr	r2, [r0]
	mov	r0, r4
	blx	r2
.Ltmp40:
	@DEBUG_VALUE: AddBuiltin:parser <- undef
	.loc	2 682 9 is_stmt 0               @ ../../../../ThirdParty/tflite_micro\tensorflow/lite/micro/micro_mutable_op_resolver.h:682:9
	cbz	r0, .LBB3_2
.Ltmp41:
@ %bb.1:
	@DEBUG_VALUE: AddBuiltin:this <- $r4
	@DEBUG_VALUE: AddBuiltin:op <- 83
	@DEBUG_VALUE: AddBuiltin:registration <- [DW_OP_plus_uconst 4, DW_OP_stack_value] $sp
	@DEBUG_VALUE: AddPack:this <- $r4
	.loc	2 683 7 is_stmt 1               @ ../../../../ThirdParty/tflite_micro\tensorflow/lite/micro/micro_mutable_op_resolver.h:683:7
	movw	r0, :lower16:.L.str.6
	movt	r0, :upper16:.L.str.6
	bl	_Z11MicroPrintfPKcz
.Ltmp42:
	.loc	2 684 7                         @ ../../../../ThirdParty/tflite_micro\tensorflow/lite/micro/micro_mutable_op_resolver.h:684:7
	movw	r0, :lower16:.L.str.7
	movs	r1, #83
	movt	r0, :upper16:.L.str.7
	b	.LBB3_4
.Ltmp43:
.LBB3_2:
	@DEBUG_VALUE: AddBuiltin:this <- $r4
	@DEBUG_VALUE: AddBuiltin:op <- 83
	@DEBUG_VALUE: AddBuiltin:registration <- [DW_OP_plus_uconst 4, DW_OP_stack_value] $sp
	@DEBUG_VALUE: AddPack:this <- $r4
	.loc	2 688 9                         @ ../../../../ThirdParty/tflite_micro\tensorflow/lite/micro/micro_mutable_op_resolver.h:688:9
	ldr.w	r0, [r4, #172]
.Ltmp44:
	.loc	2 688 9 is_stmt 0               @ ../../../../ThirdParty/tflite_micro\tensorflow/lite/micro/micro_mutable_op_resolver.h:688:9
	cmp	r0, #6
	blo	.LBB3_5
.Ltmp45:
@ %bb.3:
	@DEBUG_VALUE: AddBuiltin:this <- $r4
	@DEBUG_VALUE: AddBuiltin:op <- 83
	@DEBUG_VALUE: AddBuiltin:registration <- [DW_OP_plus_uconst 4, DW_OP_stack_value] $sp
	@DEBUG_VALUE: AddPack:this <- $r4
	.loc	2 689 7 is_stmt 1               @ ../../../../ThirdParty/tflite_micro\tensorflow/lite/micro/micro_mutable_op_resolver.h:689:7
	movw	r0, :lower16:.L.str.8
	movs	r1, #83
	movt	r0, :upper16:.L.str.8
	bl	_Z11MicroPrintfPKcz
.Ltmp46:
	.loc	2 690 7                         @ ../../../../ThirdParty/tflite_micro\tensorflow/lite/micro/micro_mutable_op_resolver.h:690:7
	movw	r0, :lower16:.L.str.9
	movs	r1, #6
	movt	r0, :upper16:.L.str.9
.Ltmp47:
.LBB3_4:
	@DEBUG_VALUE: AddBuiltin:this <- $r4
	@DEBUG_VALUE: AddBuiltin:op <- 83
	@DEBUG_VALUE: AddBuiltin:registration <- [DW_OP_plus_uconst 4, DW_OP_stack_value] $sp
	@DEBUG_VALUE: AddPack:this <- $r4
	.loc	2 0 0 is_stmt 0                 @ ../../../../ThirdParty/tflite_micro\tensorflow/lite/micro/micro_mutable_op_resolver.h:0:0
	bl	_Z11MicroPrintfPKcz
.Ltmp48:
	movs	r0, #1
.Ltmp49:
	.loc	2 461 5 epilogue_begin is_stmt 1 @ ../../../../ThirdParty/tflite_micro\tensorflow/lite/micro/micro_mutable_op_resolver.h:461:5
	add	sp, #32
	pop	{r4, r5, r6, pc}
.Ltmp50:
.LBB3_5:
	@DEBUG_VALUE: AddBuiltin:this <- $r4
	@DEBUG_VALUE: AddBuiltin:op <- 83
	@DEBUG_VALUE: AddBuiltin:registration <- [DW_OP_plus_uconst 4, DW_OP_stack_value] $sp
	@DEBUG_VALUE: AddPack:this <- $r4
	.loc	2 694 40                        @ ../../../../ThirdParty/tflite_micro\tensorflow/lite/micro/micro_mutable_op_resolver.h:694:40
	add.w	lr, sp, #4
	.loc	2 694 5 is_stmt 0               @ ../../../../ThirdParty/tflite_micro\tensorflow/lite/micro/micro_mutable_op_resolver.h:694:5
	adds	r1, r4, #4
	rsb	r0, r0, r0, lsl #3
	.loc	2 694 40                        @ ../../../../ThirdParty/tflite_micro\tensorflow/lite/micro/micro_mutable_op_resolver.h:694:40
	ldm.w	lr, {r3, r12, lr}
	.loc	2 694 5                         @ ../../../../ThirdParty/tflite_micro\tensorflow/lite/micro/micro_mutable_op_resolver.h:694:5
	add.w	r2, r1, r0, lsl #2
	.loc	2 694 40                        @ ../../../../ThirdParty/tflite_micro\tensorflow/lite/micro/micro_mutable_op_resolver.h:694:40
	str.w	r3, [r1, r0, lsl #2]
	ldrd	r3, r0, [sp, #20]
	ldr	r5, [sp, #16]
	ldr	r6, [sp, #28]
	strd	r12, lr, [r2, #4]
	strd	r5, r3, [r2, #12]
	strd	r0, r6, [r2, #20]
	.loc	2 697 20 is_stmt 1              @ ../../../../ThirdParty/tflite_micro\tensorflow/lite/micro/micro_mutable_op_resolver.h:697:20
	ldr.w	r0, [r4, #172]
	.loc	2 700 20                        @ ../../../../ThirdParty/tflite_micro\tensorflow/lite/micro/micro_mutable_op_resolver.h:700:20
	ldr.w	r3, [r4, #224]
	.loc	2 697 40                        @ ../../../../ThirdParty/tflite_micro\tensorflow/lite/micro/micro_mutable_op_resolver.h:697:40
	rsb	r2, r0, r0, lsl #3
	.loc	2 698 23                        @ ../../../../ThirdParty/tflite_micro\tensorflow/lite/micro/micro_mutable_op_resolver.h:698:23
	adds	r0, #1
	.loc	2 697 40                        @ ../../../../ThirdParty/tflite_micro\tensorflow/lite/micro/micro_mutable_op_resolver.h:697:40
	add.w	r1, r1, r2, lsl #2
	movs	r2, #83
	.loc	2 698 23                        @ ../../../../ThirdParty/tflite_micro\tensorflow/lite/micro/micro_mutable_op_resolver.h:698:23
	str.w	r0, [r4, #172]
	.loc	2 697 53                        @ ../../../../ThirdParty/tflite_micro\tensorflow/lite/micro/micro_mutable_op_resolver.h:697:53
	str	r2, [r1, #20]
	.loc	2 701 39                        @ ../../../../ThirdParty/tflite_micro\tensorflow/lite/micro/micro_mutable_op_resolver.h:701:39
	movw	r0, :lower16:_ZN6tflite9ParsePackEPKNS_8OperatorEPNS_13ErrorReporterEPNS_20BuiltinDataAllocatorEPPv
	.loc	2 700 5                         @ ../../../../ThirdParty/tflite_micro\tensorflow/lite/micro/micro_mutable_op_resolver.h:700:5
	add.w	r1, r4, r3, lsl #2
	.loc	2 701 39                        @ ../../../../ThirdParty/tflite_micro\tensorflow/lite/micro/micro_mutable_op_resolver.h:701:39
	movt	r0, :upper16:_ZN6tflite9ParsePackEPKNS_8OperatorEPNS_13ErrorReporterEPNS_20BuiltinDataAllocatorEPPv
	str.w	r0, [r1, #200]
	.loc	2 702 20                        @ ../../../../ThirdParty/tflite_micro\tensorflow/lite/micro/micro_mutable_op_resolver.h:702:20
	adds	r0, r3, #1
	.loc	2 700 37                        @ ../../../../ThirdParty/tflite_micro\tensorflow/lite/micro/micro_mutable_op_resolver.h:700:37
	str.w	r2, [r1, #176]
	.loc	2 702 20                        @ ../../../../ThirdParty/tflite_micro\tensorflow/lite/micro/micro_mutable_op_resolver.h:702:20
	str.w	r0, [r4, #224]
	movs	r0, #0
.Ltmp51:
	.loc	2 461 5 epilogue_begin          @ ../../../../ThirdParty/tflite_micro\tensorflow/lite/micro/micro_mutable_op_resolver.h:461:5
	add	sp, #32
	pop	{r4, r5, r6, pc}
.Ltmp52:
.Lfunc_end3:
	.size	_ZN6tflite22MicroMutableOpResolverILj6EE7AddPackEv, .Lfunc_end3-_ZN6tflite22MicroMutableOpResolverILj6EE7AddPackEv
	.cfi_endproc
	.cantunwind
	.fnend
                                        @ -- End function
	.section	.text._ZN6tflite22MicroMutableOpResolverILj6EE10AddReshapeEv,"axG",%progbits,_ZN6tflite22MicroMutableOpResolverILj6EE10AddReshapeEv,comdat
	.hidden	_ZN6tflite22MicroMutableOpResolverILj6EE10AddReshapeEv @ -- Begin function _ZN6tflite22MicroMutableOpResolverILj6EE10AddReshapeEv
	.weak	_ZN6tflite22MicroMutableOpResolverILj6EE10AddReshapeEv
	.p2align	2
	.type	_ZN6tflite22MicroMutableOpResolverILj6EE10AddReshapeEv,%function
	.code	16                              @ @_ZN6tflite22MicroMutableOpResolverILj6EE10AddReshapeEv
	.thumb_func
_ZN6tflite22MicroMutableOpResolverILj6EE10AddReshapeEv:
.Lfunc_begin4:
	.loc	2 514 0                         @ ../../../../ThirdParty/tflite_micro\tensorflow/lite/micro/micro_mutable_op_resolver.h:514:0
	.fnstart
	.cfi_startproc
@ %bb.0:
	@DEBUG_VALUE: AddReshape:this <- $r0
	.save	{r4, r5, r6, lr}
	push	{r4, r5, r6, lr}
	.cfi_def_cfa_offset 16
	.cfi_offset lr, -4
	.cfi_offset r6, -8
	.cfi_offset r5, -12
	.cfi_offset r4, -16
	.pad	#32
	sub	sp, #32
	.cfi_def_cfa_offset 48
	mov	r4, r0
.Ltmp53:
	@DEBUG_VALUE: AddReshape:this <- $r4
	@DEBUG_VALUE: AddReshape:this <- $r4
	add	r0, sp, #4
.Ltmp54:
	.loc	2 515 48 prologue_end           @ ../../../../ThirdParty/tflite_micro\tensorflow/lite/micro/micro_mutable_op_resolver.h:515:48
	bl	_ZN6tflite16Register_RESHAPEEv
.Ltmp55:
	@DEBUG_VALUE: AddBuiltin:registration <- [DW_OP_plus_uconst 4, DW_OP_stack_value] $sp
	@DEBUG_VALUE: AddBuiltin:op <- 22
	@DEBUG_VALUE: AddBuiltin:this <- $r4
	.loc	2 682 9                         @ ../../../../ThirdParty/tflite_micro\tensorflow/lite/micro/micro_mutable_op_resolver.h:682:9
	ldr	r0, [r4]
	movs	r1, #22
	ldr	r2, [r0]
	mov	r0, r4
	blx	r2
.Ltmp56:
	@DEBUG_VALUE: AddBuiltin:parser <- undef
	.loc	2 682 9 is_stmt 0               @ ../../../../ThirdParty/tflite_micro\tensorflow/lite/micro/micro_mutable_op_resolver.h:682:9
	cbz	r0, .LBB4_2
.Ltmp57:
@ %bb.1:
	@DEBUG_VALUE: AddBuiltin:this <- $r4
	@DEBUG_VALUE: AddBuiltin:op <- 22
	@DEBUG_VALUE: AddBuiltin:registration <- [DW_OP_plus_uconst 4, DW_OP_stack_value] $sp
	@DEBUG_VALUE: AddReshape:this <- $r4
	.loc	2 683 7 is_stmt 1               @ ../../../../ThirdParty/tflite_micro\tensorflow/lite/micro/micro_mutable_op_resolver.h:683:7
	movw	r0, :lower16:.L.str.6
	movt	r0, :upper16:.L.str.6
	bl	_Z11MicroPrintfPKcz
.Ltmp58:
	.loc	2 684 7                         @ ../../../../ThirdParty/tflite_micro\tensorflow/lite/micro/micro_mutable_op_resolver.h:684:7
	movw	r0, :lower16:.L.str.7
	movs	r1, #22
	movt	r0, :upper16:.L.str.7
	b	.LBB4_4
.Ltmp59:
.LBB4_2:
	@DEBUG_VALUE: AddBuiltin:this <- $r4
	@DEBUG_VALUE: AddBuiltin:op <- 22
	@DEBUG_VALUE: AddBuiltin:registration <- [DW_OP_plus_uconst 4, DW_OP_stack_value] $sp
	@DEBUG_VALUE: AddReshape:this <- $r4
	.loc	2 688 9                         @ ../../../../ThirdParty/tflite_micro\tensorflow/lite/micro/micro_mutable_op_resolver.h:688:9
	ldr.w	r0, [r4, #172]
.Ltmp60:
	.loc	2 688 9 is_stmt 0               @ ../../../../ThirdParty/tflite_micro\tensorflow/lite/micro/micro_mutable_op_resolver.h:688:9
	cmp	r0, #6
	blo	.LBB4_5
.Ltmp61:
@ %bb.3:
	@DEBUG_VALUE: AddBuiltin:this <- $r4
	@DEBUG_VALUE: AddBuiltin:op <- 22
	@DEBUG_VALUE: AddBuiltin:registration <- [DW_OP_plus_uconst 4, DW_OP_stack_value] $sp
	@DEBUG_VALUE: AddReshape:this <- $r4
	.loc	2 689 7 is_stmt 1               @ ../../../../ThirdParty/tflite_micro\tensorflow/lite/micro/micro_mutable_op_resolver.h:689:7
	movw	r0, :lower16:.L.str.8
	movs	r1, #22
	movt	r0, :upper16:.L.str.8
	bl	_Z11MicroPrintfPKcz
.Ltmp62:
	.loc	2 690 7                         @ ../../../../ThirdParty/tflite_micro\tensorflow/lite/micro/micro_mutable_op_resolver.h:690:7
	movw	r0, :lower16:.L.str.9
	movs	r1, #6
	movt	r0, :upper16:.L.str.9
.Ltmp63:
.LBB4_4:
	@DEBUG_VALUE: AddBuiltin:this <- $r4
	@DEBUG_VALUE: AddBuiltin:op <- 22
	@DEBUG_VALUE: AddBuiltin:registration <- [DW_OP_plus_uconst 4, DW_OP_stack_value] $sp
	@DEBUG_VALUE: AddReshape:this <- $r4
	.loc	2 0 0 is_stmt 0                 @ ../../../../ThirdParty/tflite_micro\tensorflow/lite/micro/micro_mutable_op_resolver.h:0:0
	bl	_Z11MicroPrintfPKcz
.Ltmp64:
	movs	r0, #1
.Ltmp65:
	.loc	2 515 5 epilogue_begin is_stmt 1 @ ../../../../ThirdParty/tflite_micro\tensorflow/lite/micro/micro_mutable_op_resolver.h:515:5
	add	sp, #32
	pop	{r4, r5, r6, pc}
.Ltmp66:
.LBB4_5:
	@DEBUG_VALUE: AddBuiltin:this <- $r4
	@DEBUG_VALUE: AddBuiltin:op <- 22
	@DEBUG_VALUE: AddBuiltin:registration <- [DW_OP_plus_uconst 4, DW_OP_stack_value] $sp
	@DEBUG_VALUE: AddReshape:this <- $r4
	.loc	2 694 40                        @ ../../../../ThirdParty/tflite_micro\tensorflow/lite/micro/micro_mutable_op_resolver.h:694:40
	add.w	lr, sp, #4
	.loc	2 694 5 is_stmt 0               @ ../../../../ThirdParty/tflite_micro\tensorflow/lite/micro/micro_mutable_op_resolver.h:694:5
	adds	r1, r4, #4
	rsb	r0, r0, r0, lsl #3
	.loc	2 694 40                        @ ../../../../ThirdParty/tflite_micro\tensorflow/lite/micro/micro_mutable_op_resolver.h:694:40
	ldm.w	lr, {r3, r12, lr}
	.loc	2 694 5                         @ ../../../../ThirdParty/tflite_micro\tensorflow/lite/micro/micro_mutable_op_resolver.h:694:5
	add.w	r2, r1, r0, lsl #2
	.loc	2 694 40                        @ ../../../../ThirdParty/tflite_micro\tensorflow/lite/micro/micro_mutable_op_resolver.h:694:40
	str.w	r3, [r1, r0, lsl #2]
	ldrd	r3, r0, [sp, #20]
	ldr	r5, [sp, #16]
	ldr	r6, [sp, #28]
	strd	r12, lr, [r2, #4]
	strd	r5, r3, [r2, #12]
	strd	r0, r6, [r2, #20]
	.loc	2 697 20 is_stmt 1              @ ../../../../ThirdParty/tflite_micro\tensorflow/lite/micro/micro_mutable_op_resolver.h:697:20
	ldr.w	r0, [r4, #172]
	.loc	2 700 20                        @ ../../../../ThirdParty/tflite_micro\tensorflow/lite/micro/micro_mutable_op_resolver.h:700:20
	ldr.w	r3, [r4, #224]
	.loc	2 697 40                        @ ../../../../ThirdParty/tflite_micro\tensorflow/lite/micro/micro_mutable_op_resolver.h:697:40
	rsb	r2, r0, r0, lsl #3
	.loc	2 698 23                        @ ../../../../ThirdParty/tflite_micro\tensorflow/lite/micro/micro_mutable_op_resolver.h:698:23
	adds	r0, #1
	.loc	2 697 40                        @ ../../../../ThirdParty/tflite_micro\tensorflow/lite/micro/micro_mutable_op_resolver.h:697:40
	add.w	r1, r1, r2, lsl #2
	movs	r2, #22
	.loc	2 698 23                        @ ../../../../ThirdParty/tflite_micro\tensorflow/lite/micro/micro_mutable_op_resolver.h:698:23
	str.w	r0, [r4, #172]
	.loc	2 697 53                        @ ../../../../ThirdParty/tflite_micro\tensorflow/lite/micro/micro_mutable_op_resolver.h:697:53
	str	r2, [r1, #20]
	.loc	2 701 39                        @ ../../../../ThirdParty/tflite_micro\tensorflow/lite/micro/micro_mutable_op_resolver.h:701:39
	movw	r0, :lower16:_ZN6tflite12ParseReshapeEPKNS_8OperatorEPNS_13ErrorReporterEPNS_20BuiltinDataAllocatorEPPv
	.loc	2 700 5                         @ ../../../../ThirdParty/tflite_micro\tensorflow/lite/micro/micro_mutable_op_resolver.h:700:5
	add.w	r1, r4, r3, lsl #2
	.loc	2 701 39                        @ ../../../../ThirdParty/tflite_micro\tensorflow/lite/micro/micro_mutable_op_resolver.h:701:39
	movt	r0, :upper16:_ZN6tflite12ParseReshapeEPKNS_8OperatorEPNS_13ErrorReporterEPNS_20BuiltinDataAllocatorEPPv
	str.w	r0, [r1, #200]
	.loc	2 702 20                        @ ../../../../ThirdParty/tflite_micro\tensorflow/lite/micro/micro_mutable_op_resolver.h:702:20
	adds	r0, r3, #1
	.loc	2 700 37                        @ ../../../../ThirdParty/tflite_micro\tensorflow/lite/micro/micro_mutable_op_resolver.h:700:37
	str.w	r2, [r1, #176]
	.loc	2 702 20                        @ ../../../../ThirdParty/tflite_micro\tensorflow/lite/micro/micro_mutable_op_resolver.h:702:20
	str.w	r0, [r4, #224]
	movs	r0, #0
.Ltmp67:
	.loc	2 515 5 epilogue_begin          @ ../../../../ThirdParty/tflite_micro\tensorflow/lite/micro/micro_mutable_op_resolver.h:515:5
	add	sp, #32
	pop	{r4, r5, r6, pc}
.Ltmp68:
.Lfunc_end4:
	.size	_ZN6tflite22MicroMutableOpResolverILj6EE10AddReshapeEv, .Lfunc_end4-_ZN6tflite22MicroMutableOpResolverILj6EE10AddReshapeEv
	.cfi_endproc
	.cantunwind
	.fnend
                                        @ -- End function
	.section	.text._ZN6tflite22MicroMutableOpResolverILj6EE10AddSoftmaxERK16TFLMRegistration,"axG",%progbits,_ZN6tflite22MicroMutableOpResolverILj6EE10AddSoftmaxERK16TFLMRegistration,comdat
	.hidden	_ZN6tflite22MicroMutableOpResolverILj6EE10AddSoftmaxERK16TFLMRegistration @ -- Begin function _ZN6tflite22MicroMutableOpResolverILj6EE10AddSoftmaxERK16TFLMRegistration
	.weak	_ZN6tflite22MicroMutableOpResolverILj6EE10AddSoftmaxERK16TFLMRegistration
	.p2align	2
	.type	_ZN6tflite22MicroMutableOpResolverILj6EE10AddSoftmaxERK16TFLMRegistration,%function
	.code	16                              @ @_ZN6tflite22MicroMutableOpResolverILj6EE10AddSoftmaxERK16TFLMRegistration
	.thumb_func
_ZN6tflite22MicroMutableOpResolverILj6EE10AddSoftmaxERK16TFLMRegistration:
.Lfunc_begin5:
	.loc	2 562 0                         @ ../../../../ThirdParty/tflite_micro\tensorflow/lite/micro/micro_mutable_op_resolver.h:562:0
	.fnstart
	.cfi_startproc
@ %bb.0:
	@DEBUG_VALUE: AddSoftmax:this <- $r0
	@DEBUG_VALUE: AddSoftmax:registration <- $r1
	@DEBUG_VALUE: AddBuiltin:this <- $r0
	@DEBUG_VALUE: AddBuiltin:registration <- $r1
	.save	{r4, r5, r6, r7, r8, lr}
	push.w	{r4, r5, r6, r7, r8, lr}
	.cfi_def_cfa_offset 24
	.cfi_offset lr, -4
	.cfi_offset r8, -8
	.cfi_offset r7, -12
	.cfi_offset r6, -16
	.cfi_offset r5, -20
	.cfi_offset r4, -24
	mov	r4, r0
.Ltmp69:
	@DEBUG_VALUE: AddBuiltin:op <- 25
	@DEBUG_VALUE: AddBuiltin:this <- $r4
	@DEBUG_VALUE: AddSoftmax:this <- $r4
	.loc	2 682 9 prologue_end            @ ../../../../ThirdParty/tflite_micro\tensorflow/lite/micro/micro_mutable_op_resolver.h:682:9
	ldr	r0, [r0]
	mov	r5, r1
.Ltmp70:
	@DEBUG_VALUE: AddSoftmax:registration <- $r5
	@DEBUG_VALUE: AddBuiltin:registration <- $r5
	@DEBUG_VALUE: AddSoftmax:registration <- $r5
	movs	r1, #25
	ldr	r2, [r0]
	mov	r0, r4
	blx	r2
.Ltmp71:
	@DEBUG_VALUE: AddBuiltin:parser <- undef
	.loc	2 682 9 is_stmt 0               @ ../../../../ThirdParty/tflite_micro\tensorflow/lite/micro/micro_mutable_op_resolver.h:682:9
	cbz	r0, .LBB5_2
.Ltmp72:
@ %bb.1:
	@DEBUG_VALUE: AddBuiltin:registration <- $r5
	@DEBUG_VALUE: AddSoftmax:registration <- $r5
	@DEBUG_VALUE: AddSoftmax:this <- $r4
	@DEBUG_VALUE: AddBuiltin:this <- $r4
	@DEBUG_VALUE: AddBuiltin:op <- 25
	.loc	2 683 7 is_stmt 1               @ ../../../../ThirdParty/tflite_micro\tensorflow/lite/micro/micro_mutable_op_resolver.h:683:7
	movw	r0, :lower16:.L.str.6
	movt	r0, :upper16:.L.str.6
	bl	_Z11MicroPrintfPKcz
.Ltmp73:
	.loc	2 684 7                         @ ../../../../ThirdParty/tflite_micro\tensorflow/lite/micro/micro_mutable_op_resolver.h:684:7
	movw	r0, :lower16:.L.str.7
	movs	r1, #25
	movt	r0, :upper16:.L.str.7
	b	.LBB5_4
.Ltmp74:
.LBB5_2:
	@DEBUG_VALUE: AddBuiltin:registration <- $r5
	@DEBUG_VALUE: AddSoftmax:registration <- $r5
	@DEBUG_VALUE: AddSoftmax:this <- $r4
	@DEBUG_VALUE: AddBuiltin:this <- $r4
	@DEBUG_VALUE: AddBuiltin:op <- 25
	.loc	2 688 9                         @ ../../../../ThirdParty/tflite_micro\tensorflow/lite/micro/micro_mutable_op_resolver.h:688:9
	ldr.w	r0, [r4, #172]
.Ltmp75:
	.loc	2 688 9 is_stmt 0               @ ../../../../ThirdParty/tflite_micro\tensorflow/lite/micro/micro_mutable_op_resolver.h:688:9
	cmp	r0, #6
	blo	.LBB5_5
.Ltmp76:
@ %bb.3:
	@DEBUG_VALUE: AddBuiltin:registration <- $r5
	@DEBUG_VALUE: AddSoftmax:registration <- $r5
	@DEBUG_VALUE: AddSoftmax:this <- $r4
	@DEBUG_VALUE: AddBuiltin:this <- $r4
	@DEBUG_VALUE: AddBuiltin:op <- 25
	.loc	2 689 7 is_stmt 1               @ ../../../../ThirdParty/tflite_micro\tensorflow/lite/micro/micro_mutable_op_resolver.h:689:7
	movw	r0, :lower16:.L.str.8
	movs	r1, #25
	movt	r0, :upper16:.L.str.8
	bl	_Z11MicroPrintfPKcz
.Ltmp77:
	.loc	2 690 7                         @ ../../../../ThirdParty/tflite_micro\tensorflow/lite/micro/micro_mutable_op_resolver.h:690:7
	movw	r0, :lower16:.L.str.9
	movs	r1, #6
	movt	r0, :upper16:.L.str.9
.Ltmp78:
.LBB5_4:
	@DEBUG_VALUE: AddBuiltin:registration <- $r5
	@DEBUG_VALUE: AddSoftmax:registration <- $r5
	@DEBUG_VALUE: AddSoftmax:this <- $r4
	@DEBUG_VALUE: AddBuiltin:this <- $r4
	@DEBUG_VALUE: AddBuiltin:op <- 25
	.loc	2 0 0 is_stmt 0                 @ ../../../../ThirdParty/tflite_micro\tensorflow/lite/micro/micro_mutable_op_resolver.h:0:0
	bl	_Z11MicroPrintfPKcz
.Ltmp79:
	movs	r0, #1
.Ltmp80:
	.loc	2 563 5 epilogue_begin is_stmt 1 @ ../../../../ThirdParty/tflite_micro\tensorflow/lite/micro/micro_mutable_op_resolver.h:563:5
	pop.w	{r4, r5, r6, r7, r8, pc}
.Ltmp81:
.LBB5_5:
	@DEBUG_VALUE: AddBuiltin:registration <- $r5
	@DEBUG_VALUE: AddSoftmax:registration <- $r5
	@DEBUG_VALUE: AddSoftmax:this <- $r4
	@DEBUG_VALUE: AddBuiltin:this <- $r4
	@DEBUG_VALUE: AddBuiltin:op <- 25
	.loc	2 694 5                         @ ../../../../ThirdParty/tflite_micro\tensorflow/lite/micro/micro_mutable_op_resolver.h:694:5
	rsb	r0, r0, r0, lsl #3
	adds	r1, r4, #4
	.loc	2 694 40 is_stmt 0              @ ../../../../ThirdParty/tflite_micro\tensorflow/lite/micro/micro_mutable_op_resolver.h:694:40
	ldrd	r3, r8, [r5]
	ldrd	r7, r6, [r5, #8]
	.loc	2 694 5                         @ ../../../../ThirdParty/tflite_micro\tensorflow/lite/micro/micro_mutable_op_resolver.h:694:5
	add.w	r2, r1, r0, lsl #2
	.loc	2 694 40                        @ ../../../../ThirdParty/tflite_micro\tensorflow/lite/micro/micro_mutable_op_resolver.h:694:40
	ldrd	r12, lr, [r5, #16]
	str.w	r3, [r1, r0, lsl #2]
	add.w	r0, r2, #12
	stm.w	r0, {r6, r12, lr}
	movs	r3, #25
	strd	r8, r7, [r2, #4]
	ldr	r0, [r5, #24]
	str	r0, [r2, #24]
	.loc	2 697 20 is_stmt 1              @ ../../../../ThirdParty/tflite_micro\tensorflow/lite/micro/micro_mutable_op_resolver.h:697:20
	ldr.w	r0, [r4, #172]
	.loc	2 697 40 is_stmt 0              @ ../../../../ThirdParty/tflite_micro\tensorflow/lite/micro/micro_mutable_op_resolver.h:697:40
	rsb	r2, r0, r0, lsl #3
	.loc	2 698 23 is_stmt 1              @ ../../../../ThirdParty/tflite_micro\tensorflow/lite/micro/micro_mutable_op_resolver.h:698:23
	adds	r0, #1
	.loc	2 697 40                        @ ../../../../ThirdParty/tflite_micro\tensorflow/lite/micro/micro_mutable_op_resolver.h:697:40
	add.w	r1, r1, r2, lsl #2
	.loc	2 700 20                        @ ../../../../ThirdParty/tflite_micro\tensorflow/lite/micro/micro_mutable_op_resolver.h:700:20
	ldr.w	r2, [r4, #224]
	.loc	2 697 53                        @ ../../../../ThirdParty/tflite_micro\tensorflow/lite/micro/micro_mutable_op_resolver.h:697:53
	str	r3, [r1, #20]
	.loc	2 700 5                         @ ../../../../ThirdParty/tflite_micro\tensorflow/lite/micro/micro_mutable_op_resolver.h:700:5
	add.w	r1, r4, r2, lsl #2
	.loc	2 698 23                        @ ../../../../ThirdParty/tflite_micro\tensorflow/lite/micro/micro_mutable_op_resolver.h:698:23
	str.w	r0, [r4, #172]
	.loc	2 701 39                        @ ../../../../ThirdParty/tflite_micro\tensorflow/lite/micro/micro_mutable_op_resolver.h:701:39
	movw	r0, :lower16:_ZN6tflite12ParseSoftmaxEPKNS_8OperatorEPNS_13ErrorReporterEPNS_20BuiltinDataAllocatorEPPv
	movt	r0, :upper16:_ZN6tflite12ParseSoftmaxEPKNS_8OperatorEPNS_13ErrorReporterEPNS_20BuiltinDataAllocatorEPPv
	str.w	r0, [r1, #200]
	.loc	2 702 20                        @ ../../../../ThirdParty/tflite_micro\tensorflow/lite/micro/micro_mutable_op_resolver.h:702:20
	adds	r0, r2, #1
	str.w	r0, [r4, #224]
	movs	r0, #0
	.loc	2 700 37                        @ ../../../../ThirdParty/tflite_micro\tensorflow/lite/micro/micro_mutable_op_resolver.h:700:37
	str.w	r3, [r1, #176]
.Ltmp82:
	.loc	2 563 5 epilogue_begin          @ ../../../../ThirdParty/tflite_micro\tensorflow/lite/micro/micro_mutable_op_resolver.h:563:5
	pop.w	{r4, r5, r6, r7, r8, pc}
.Ltmp83:
.Lfunc_end5:
	.size	_ZN6tflite22MicroMutableOpResolverILj6EE10AddSoftmaxERK16TFLMRegistration, .Lfunc_end5-_ZN6tflite22MicroMutableOpResolverILj6EE10AddSoftmaxERK16TFLMRegistration
	.cfi_endproc
	.cantunwind
	.fnend
                                        @ -- End function
	.section	.text._ZN6tflite22MicroMutableOpResolverILj6EE9AddEthosUEv,"axG",%progbits,_ZN6tflite22MicroMutableOpResolverILj6EE9AddEthosUEv,comdat
	.hidden	_ZN6tflite22MicroMutableOpResolverILj6EE9AddEthosUEv @ -- Begin function _ZN6tflite22MicroMutableOpResolverILj6EE9AddEthosUEv
	.weak	_ZN6tflite22MicroMutableOpResolverILj6EE9AddEthosUEv
	.p2align	2
	.type	_ZN6tflite22MicroMutableOpResolverILj6EE9AddEthosUEv,%function
	.code	16                              @ @_ZN6tflite22MicroMutableOpResolverILj6EE9AddEthosUEv
	.thumb_func
_ZN6tflite22MicroMutableOpResolverILj6EE9AddEthosUEv:
.Lfunc_begin6:
	.loc	2 252 0                         @ ../../../../ThirdParty/tflite_micro\tensorflow/lite/micro/micro_mutable_op_resolver.h:252:0
	.fnstart
	.cfi_startproc
@ %bb.0:
	@DEBUG_VALUE: AddEthosU:this <- $r0
	.save	{r4, r5, r6, lr}
	push	{r4, r5, r6, lr}
	.cfi_def_cfa_offset 16
	.cfi_offset lr, -4
	.cfi_offset r6, -8
	.cfi_offset r5, -12
	.cfi_offset r4, -16
	mov	r5, r0
.Ltmp84:
	@DEBUG_VALUE: AddEthosU:this <- $r5
	@DEBUG_VALUE: AddEthosU:this <- $r5
	.loc	2 253 38 prologue_end           @ ../../../../ThirdParty/tflite_micro\tensorflow/lite/micro/micro_mutable_op_resolver.h:253:38
	bl	_ZN6tflite15Register_ETHOSUEv
.Ltmp85:
	@DEBUG_VALUE: AddEthosU:registration <- $r0
	.loc	2 254 9                         @ ../../../../ThirdParty/tflite_micro\tensorflow/lite/micro/micro_mutable_op_resolver.h:254:9
	cbz	r0, .LBB6_6
.Ltmp86:
@ %bb.1:
	@DEBUG_VALUE: AddEthosU:registration <- $r0
	@DEBUG_VALUE: AddEthosU:this <- $r5
	.loc	2 0 9 is_stmt 0                 @ ../../../../ThirdParty/tflite_micro\tensorflow/lite/micro/micro_mutable_op_resolver.h:0:9
	mov	r6, r0
.Ltmp87:
	@DEBUG_VALUE: AddEthosU:registration <- $r6
	.loc	2 255 24 is_stmt 1              @ ../../../../ThirdParty/tflite_micro\tensorflow/lite/micro/micro_mutable_op_resolver.h:255:24
	bl	_ZN6tflite16GetString_ETHOSUEv
.Ltmp88:
	.loc	2 91 9                          @ ../../../../ThirdParty/tflite_micro\tensorflow/lite/micro/micro_mutable_op_resolver.h:91:9
	ldr.w	r1, [r5, #172]
.Ltmp89:
	.loc	2 255 24                        @ ../../../../ThirdParty/tflite_micro\tensorflow/lite/micro/micro_mutable_op_resolver.h:255:24
	mov	r4, r0
.Ltmp90:
	@DEBUG_VALUE: AddCustom:registration <- $r6
	@DEBUG_VALUE: AddCustom:this <- $r5
	@DEBUG_VALUE: AddCustom:name <- $r4
	.loc	2 91 9                          @ ../../../../ThirdParty/tflite_micro\tensorflow/lite/micro/micro_mutable_op_resolver.h:91:9
	cmp	r1, #6
	blo	.LBB6_3
.Ltmp91:
@ %bb.2:
	@DEBUG_VALUE: AddCustom:name <- $r4
	@DEBUG_VALUE: AddCustom:this <- $r5
	@DEBUG_VALUE: AddCustom:registration <- $r6
	@DEBUG_VALUE: AddEthosU:registration <- $r6
	@DEBUG_VALUE: AddEthosU:this <- $r5
	.loc	2 92 7                          @ ../../../../ThirdParty/tflite_micro\tensorflow/lite/micro/micro_mutable_op_resolver.h:92:7
	movw	r0, :lower16:.L.str.10
	mov	r1, r4
	movt	r0, :upper16:.L.str.10
	movs	r2, #6
	bl	_Z11MicroPrintfPKcz
.Ltmp92:
	.loc	2 0 7 is_stmt 0                 @ ../../../../ThirdParty/tflite_micro\tensorflow/lite/micro/micro_mutable_op_resolver.h:0:7
	movs	r0, #1
.Ltmp93:
	.loc	2 258 3 epilogue_begin is_stmt 1 @ ../../../../ThirdParty/tflite_micro\tensorflow/lite/micro/micro_mutable_op_resolver.h:258:3
	pop	{r4, r5, r6, pc}
.Ltmp94:
.LBB6_3:
	@DEBUG_VALUE: AddCustom:name <- $r4
	@DEBUG_VALUE: AddCustom:this <- $r5
	@DEBUG_VALUE: AddCustom:registration <- $r6
	@DEBUG_VALUE: AddEthosU:registration <- $r6
	@DEBUG_VALUE: AddEthosU:this <- $r5
	@DEBUG_VALUE: AddCustom:registration <- $r6
	.loc	2 99 9                          @ ../../../../ThirdParty/tflite_micro\tensorflow/lite/micro/micro_mutable_op_resolver.h:99:9
	ldr	r0, [r5]
	mov	r1, r4
	ldr	r2, [r0, #4]
	mov	r0, r5
	blx	r2
.Ltmp95:
	.loc	2 99 9 is_stmt 0                @ ../../../../ThirdParty/tflite_micro\tensorflow/lite/micro/micro_mutable_op_resolver.h:99:9
	cbz	r0, .LBB6_5
.Ltmp96:
@ %bb.4:
	@DEBUG_VALUE: AddCustom:name <- $r4
	@DEBUG_VALUE: AddCustom:this <- $r5
	@DEBUG_VALUE: AddCustom:registration <- $r6
	@DEBUG_VALUE: AddEthosU:registration <- $r6
	@DEBUG_VALUE: AddEthosU:this <- $r5
	.loc	2 100 7 is_stmt 1               @ ../../../../ThirdParty/tflite_micro\tensorflow/lite/micro/micro_mutable_op_resolver.h:100:7
	adr	r0, .LCPI6_0
	bl	_Z11MicroPrintfPKcz
.Ltmp97:
	.loc	2 101 7                         @ ../../../../ThirdParty/tflite_micro\tensorflow/lite/micro/micro_mutable_op_resolver.h:101:7
	adr	r0, .LCPI6_1
	mov	r1, r4
	bl	_Z11MicroPrintfPKcz
.Ltmp98:
	.loc	2 0 7 is_stmt 0                 @ ../../../../ThirdParty/tflite_micro\tensorflow/lite/micro/micro_mutable_op_resolver.h:0:7
	movs	r0, #1
.Ltmp99:
	.loc	2 258 3 epilogue_begin is_stmt 1 @ ../../../../ThirdParty/tflite_micro\tensorflow/lite/micro/micro_mutable_op_resolver.h:258:3
	pop	{r4, r5, r6, pc}
.Ltmp100:
.LBB6_5:
	@DEBUG_VALUE: AddCustom:name <- $r4
	@DEBUG_VALUE: AddCustom:this <- $r5
	@DEBUG_VALUE: AddCustom:registration <- $r6
	@DEBUG_VALUE: AddEthosU:registration <- $r6
	@DEBUG_VALUE: AddEthosU:this <- $r5
	@DEBUG_VALUE: AddCustom:registration <- $r6
	.loc	2 105 58                        @ ../../../../ThirdParty/tflite_micro\tensorflow/lite/micro/micro_mutable_op_resolver.h:105:58
	ldr.w	r0, [r5, #172]
	.loc	2 105 43 is_stmt 0              @ ../../../../ThirdParty/tflite_micro\tensorflow/lite/micro/micro_mutable_op_resolver.h:105:43
	rsb	r1, r0, r0, lsl #3
	.loc	2 106 24 is_stmt 1              @ ../../../../ThirdParty/tflite_micro\tensorflow/lite/micro/micro_mutable_op_resolver.h:106:24
	adds	r0, #1
	.loc	2 105 43                        @ ../../../../ThirdParty/tflite_micro\tensorflow/lite/micro/micro_mutable_op_resolver.h:105:43
	add.w	r1, r5, r1, lsl #2
.Ltmp101:
	@DEBUG_VALUE: AddCustom:new_registration <- [DW_OP_plus_uconst 4, DW_OP_stack_value] $r1
	.loc	2 106 24                        @ ../../../../ThirdParty/tflite_micro\tensorflow/lite/micro/micro_mutable_op_resolver.h:106:24
	str.w	r0, [r5, #172]
	.loc	2 108 23                        @ ../../../../ThirdParty/tflite_micro\tensorflow/lite/micro/micro_mutable_op_resolver.h:108:23
	ldm	r6, {r0, r2, r3, r5, r6}
.Ltmp102:
	@DEBUG_VALUE: AddEthosU:this <- [DW_OP_LLVM_entry_value 1] $r0
	add.w	r12, r1, #4
	.loc	2 110 35                        @ ../../../../ThirdParty/tflite_micro\tensorflow/lite/micro/micro_mutable_op_resolver.h:110:35
	str	r4, [r1, #28]
	.loc	2 108 23                        @ ../../../../ThirdParty/tflite_micro\tensorflow/lite/micro/micro_mutable_op_resolver.h:108:23
	stm.w	r12, {r0, r2, r3, r5}
	movs	r0, #32
	strd	r6, r0, [r1, #20]
.Ltmp103:
.LBB6_6:
	.loc	2 0 23 is_stmt 0                @ ../../../../ThirdParty/tflite_micro\tensorflow/lite/micro/micro_mutable_op_resolver.h:0:23
	movs	r0, #0
	.loc	2 258 3 epilogue_begin is_stmt 1 @ ../../../../ThirdParty/tflite_micro\tensorflow/lite/micro/micro_mutable_op_resolver.h:258:3
	pop	{r4, r5, r6, pc}
.Ltmp104:
	.loc	2 0 3 is_stmt 0                 @ :0:3
.Ltmp105:
	.p2align	2
@ %bb.7:
.LCPI6_0:
.L.str.11:
	.asciz	"Calling AddCustom for the same op more than once \000\000"
.LCPI6_1:
.L.str.12:
	.asciz	"is not supported (Op: %s).\000"
.Lfunc_end6:
	.size	_ZN6tflite22MicroMutableOpResolverILj6EE9AddEthosUEv, .Lfunc_end6-_ZN6tflite22MicroMutableOpResolverILj6EE9AddEthosUEv
	.cfi_endproc
	.cantunwind
	.fnend
                                        @ -- End function
	.section	.text._ZN3arm3app23ExerciseClassifierModelD2Ev,"axG",%progbits,_ZN3arm3app23ExerciseClassifierModelD2Ev,comdat
	.hidden	_ZN3arm3app23ExerciseClassifierModelD2Ev @ -- Begin function _ZN3arm3app23ExerciseClassifierModelD2Ev
	.weak	_ZN3arm3app23ExerciseClassifierModelD2Ev
	.p2align	2
	.type	_ZN3arm3app23ExerciseClassifierModelD2Ev,%function
	.code	16                              @ @_ZN3arm3app23ExerciseClassifierModelD2Ev
	.thumb_func
_ZN3arm3app23ExerciseClassifierModelD2Ev:
.Lfunc_begin7:
	.loc	20 9 0 is_stmt 1                @ ../Model/include\ExerciseClassifierModel.hpp:9:0
	.fnstart
	.cfi_startproc
@ %bb.0:
	@DEBUG_VALUE: ~ExerciseClassifierModel:this <- $r0
	@DEBUG_VALUE: ~Model:this <- $r0
	.save	{r4, lr}
	push	{r4, lr}
	.cfi_def_cfa_offset 8
	.cfi_offset lr, -4
	.cfi_offset r4, -8
	mov	r4, r0
.Ltmp106:
	@DEBUG_VALUE: ~Model:this <- $r4
	@DEBUG_VALUE: ~ExerciseClassifierModel:this <- $r4
	.loc	9 528 18 prologue_end           @ AppData\Local\Keil_v5\ARM\ARMCLANG\bin\..\include\libcxx\vector:528:18
	ldr	r0, [r0, #40]
.Ltmp107:
	.file	29 "C:\\Users\\eding\\Downloads\\aifitnessmirrordemo-main\\aifitnessmirrordemo-main\\keil_firmware\\SampleCode\\MachineLearning\\AIFitnessMirror\\KEIL" "../../../../ThirdParty/ml-embedded-evaluation-kit/source/application/api/common/include\\Model.hpp"
	.loc	29 36 28                        @ ../../../../ThirdParty/ml-embedded-evaluation-kit/source/application/api/common/include\Model.hpp:36:28
	movw	r1, :lower16:_ZTVN3arm3app5ModelE
	movt	r1, :upper16:_ZTVN3arm3app5ModelE
	adds	r1, #8
	str	r1, [r4]
.Ltmp108:
	@DEBUG_VALUE: ~vector:this <- [DW_OP_plus_uconst 40, DW_OP_stack_value] $r4
	.loc	9 528 11                        @ AppData\Local\Keil_v5\ARM\ARMCLANG\bin\..\include\libcxx\vector:528:11
	cbz	r0, .LBB7_2
.Ltmp109:
@ %bb.1:
	@DEBUG_VALUE: ~vector:this <- [DW_OP_plus_uconst 40, DW_OP_stack_value] $r4
	@DEBUG_VALUE: ~ExerciseClassifierModel:this <- $r4
	@DEBUG_VALUE: ~Model:this <- $r4
	@DEBUG_VALUE: __base_destruct_at_end:__soon_to_be_end <- undef
	.loc	9 637 35                        @ AppData\Local\Keil_v5\ARM\ARMCLANG\bin\..\include\libcxx\vector:637:35
	ldr	r1, [r4, #48]
.Ltmp110:
	@DEBUG_VALUE: __base_destruct_at_end:this <- [DW_OP_plus_uconst 40, DW_OP_stack_value] $r4
	@DEBUG_VALUE: __clear:this <- [DW_OP_plus_uconst 40, DW_OP_stack_value] $r4
	@DEBUG_VALUE: __base_destruct_at_end:__new_last <- $r0
	.loc	9 985 18                        @ AppData\Local\Keil_v5\ARM\ARMCLANG\bin\..\include\libcxx\vector:985:18
	str	r0, [r4, #44]
.Ltmp111:
	@DEBUG_VALUE: __end_cap:this <- [DW_OP_plus_uconst 40, DW_OP_stack_value] $r4
	@DEBUG_VALUE: capacity:this <- [DW_OP_plus_uconst 40, DW_OP_stack_value] $r4
	.loc	9 637 47                        @ AppData\Local\Keil_v5\ARM\ARMCLANG\bin\..\include\libcxx\vector:637:47
	subs	r1, r1, r0
.Ltmp112:
	@DEBUG_VALUE: deallocate:this <- [DW_OP_plus_uconst 40, DW_OP_plus_uconst 8, DW_OP_stack_value] $r4
	@DEBUG_VALUE: deallocate:__a <- [DW_OP_plus_uconst 40, DW_OP_plus_uconst 8, DW_OP_stack_value] $r4
	@DEBUG_VALUE: __libcpp_operator_delete<void *, unsigned int>:__args <- $r0
	@DEBUG_VALUE: __do_deallocate_handle_size<>:__ptr <- $r0
	@DEBUG_VALUE: __libcpp_deallocate:__align <- 4
	@DEBUG_VALUE: __libcpp_deallocate:__ptr <- $r0
	@DEBUG_VALUE: deallocate:__p <- $r0
	@DEBUG_VALUE: deallocate:__p <- $r0
	@DEBUG_VALUE: __libcpp_operator_delete<void *, unsigned int>:__args <- $r1
	@DEBUG_VALUE: __do_deallocate_handle_size<>:__size <- $r1
	@DEBUG_VALUE: __libcpp_deallocate:__size <- $r1
	@DEBUG_VALUE: deallocate:__n <- [DW_OP_constu 2, DW_OP_shra, DW_OP_stack_value] $r1
	@DEBUG_VALUE: deallocate:__n <- [DW_OP_constu 2, DW_OP_shra, DW_OP_stack_value] $r1
	.loc	6 281 3                         @ AppData\Local\Keil_v5\ARM\ARMCLANG\bin\..\include\libcxx\new:281:3
	bl	_ZdlPvj
.Ltmp113:
.LBB7_2:
	@DEBUG_VALUE: ~ExerciseClassifierModel:this <- $r4
	@DEBUG_VALUE: ~Model:this <- $r4
	@DEBUG_VALUE: ~vector:this <- [DW_OP_plus_uconst 28, DW_OP_stack_value] $r4
	@DEBUG_VALUE: operator():this <- undef
	.loc	9 528 18                        @ AppData\Local\Keil_v5\ARM\ARMCLANG\bin\..\include\libcxx\vector:528:18
	ldr	r0, [r4, #28]
.Ltmp114:
	.loc	9 528 11 is_stmt 0              @ AppData\Local\Keil_v5\ARM\ARMCLANG\bin\..\include\libcxx\vector:528:11
	cbz	r0, .LBB7_4
.Ltmp115:
@ %bb.3:
	@DEBUG_VALUE: ~vector:this <- [DW_OP_plus_uconst 28, DW_OP_stack_value] $r4
	@DEBUG_VALUE: ~ExerciseClassifierModel:this <- $r4
	@DEBUG_VALUE: ~Model:this <- $r4
	@DEBUG_VALUE: __base_destruct_at_end:__soon_to_be_end <- undef
	.loc	9 637 35 is_stmt 1              @ AppData\Local\Keil_v5\ARM\ARMCLANG\bin\..\include\libcxx\vector:637:35
	ldr	r1, [r4, #36]
.Ltmp116:
	@DEBUG_VALUE: __base_destruct_at_end:this <- [DW_OP_plus_uconst 28, DW_OP_stack_value] $r4
	@DEBUG_VALUE: __clear:this <- [DW_OP_plus_uconst 28, DW_OP_stack_value] $r4
	@DEBUG_VALUE: __base_destruct_at_end:__new_last <- $r0
	.loc	9 985 18                        @ AppData\Local\Keil_v5\ARM\ARMCLANG\bin\..\include\libcxx\vector:985:18
	str	r0, [r4, #32]
.Ltmp117:
	@DEBUG_VALUE: __end_cap:this <- [DW_OP_plus_uconst 28, DW_OP_stack_value] $r4
	@DEBUG_VALUE: capacity:this <- [DW_OP_plus_uconst 28, DW_OP_stack_value] $r4
	.loc	9 637 47                        @ AppData\Local\Keil_v5\ARM\ARMCLANG\bin\..\include\libcxx\vector:637:47
	subs	r1, r1, r0
.Ltmp118:
	@DEBUG_VALUE: deallocate:this <- [DW_OP_plus_uconst 28, DW_OP_plus_uconst 8, DW_OP_stack_value] $r4
	@DEBUG_VALUE: deallocate:__a <- [DW_OP_plus_uconst 28, DW_OP_plus_uconst 8, DW_OP_stack_value] $r4
	@DEBUG_VALUE: __libcpp_operator_delete<void *, unsigned int>:__args <- $r0
	@DEBUG_VALUE: __do_deallocate_handle_size<>:__ptr <- $r0
	@DEBUG_VALUE: __libcpp_deallocate:__align <- 4
	@DEBUG_VALUE: __libcpp_deallocate:__ptr <- $r0
	@DEBUG_VALUE: deallocate:__p <- $r0
	@DEBUG_VALUE: deallocate:__p <- $r0
	@DEBUG_VALUE: __libcpp_operator_delete<void *, unsigned int>:__args <- $r1
	@DEBUG_VALUE: __do_deallocate_handle_size<>:__size <- $r1
	@DEBUG_VALUE: __libcpp_deallocate:__size <- $r1
	@DEBUG_VALUE: deallocate:__n <- [DW_OP_constu 2, DW_OP_shra, DW_OP_stack_value] $r1
	@DEBUG_VALUE: deallocate:__n <- [DW_OP_constu 2, DW_OP_shra, DW_OP_stack_value] $r1
	.loc	6 281 3                         @ AppData\Local\Keil_v5\ARM\ARMCLANG\bin\..\include\libcxx\new:281:3
	bl	_ZdlPvj
.Ltmp119:
.LBB7_4:
	@DEBUG_VALUE: ~ExerciseClassifierModel:this <- $r4
	@DEBUG_VALUE: ~Model:this <- $r4
	@DEBUG_VALUE: ~unique_ptr:this <- [DW_OP_plus_uconst 8, DW_OP_stack_value] $r4
	@DEBUG_VALUE: reset:this <- [DW_OP_plus_uconst 8, DW_OP_stack_value] $r4
	@DEBUG_VALUE: reset:__p <- 0
	.loc	15 277 29                       @ AppData\Local\Keil_v5\ARM\ARMCLANG\bin\..\include\libcxx\__memory\unique_ptr.h:277:29
	ldr	r0, [r4, #8]
.Ltmp120:
	@DEBUG_VALUE: reset:__tmp <- $r0
	.loc	15 0 29 is_stmt 0               @ AppData\Local\Keil_v5\ARM\ARMCLANG\bin\..\include\libcxx\__memory\unique_ptr.h:0:29
	movs	r1, #0
	.loc	15 278 20 is_stmt 1             @ AppData\Local\Keil_v5\ARM\ARMCLANG\bin\..\include\libcxx\__memory\unique_ptr.h:278:20
	str	r1, [r4, #8]
	.loc	15 279 9                        @ AppData\Local\Keil_v5\ARM\ARMCLANG\bin\..\include\libcxx\__memory\unique_ptr.h:279:9
	cbz	r0, .LBB7_6
.Ltmp121:
@ %bb.5:
	@DEBUG_VALUE: reset:__tmp <- $r0
	@DEBUG_VALUE: reset:__p <- 0
	@DEBUG_VALUE: reset:this <- [DW_OP_plus_uconst 8, DW_OP_stack_value] $r4
	@DEBUG_VALUE: ~unique_ptr:this <- [DW_OP_plus_uconst 8, DW_OP_stack_value] $r4
	@DEBUG_VALUE: ~ExerciseClassifierModel:this <- $r4
	@DEBUG_VALUE: ~Model:this <- $r4
	@DEBUG_VALUE: operator():__ptr <- $r0
	@DEBUG_VALUE: operator():this <- [DW_OP_plus_uconst 8, DW_OP_stack_value] $r4
	.loc	15 68 5                         @ AppData\Local\Keil_v5\ARM\ARMCLANG\bin\..\include\libcxx\__memory\unique_ptr.h:68:5
	bl	_ZN6tflite16MicroInterpreterD1Ev
.Ltmp122:
	movs	r1, #192
	bl	_ZdlPvj
.Ltmp123:
.LBB7_6:
	@DEBUG_VALUE: ~ExerciseClassifierModel:this <- $r4
	.loc	20 9 7                          @ ../Model/include\ExerciseClassifierModel.hpp:9:7
	mov	r0, r4
.Ltmp124:
	@DEBUG_VALUE: ~ExerciseClassifierModel:this <- $r0
	.loc	20 9 7 epilogue_begin is_stmt 0 @ ../Model/include\ExerciseClassifierModel.hpp:9:7
	pop	{r4, pc}
.Ltmp125:
.Lfunc_end7:
	.size	_ZN3arm3app23ExerciseClassifierModelD2Ev, .Lfunc_end7-_ZN3arm3app23ExerciseClassifierModelD2Ev
	.cfi_endproc
	.file	30 "C:\\Users\\eding" "AppData\\Local\\Keil_v5\\ARM\\ARMCLANG\\bin\\..\\include\\stdlib.h"
	.cantunwind
	.fnend
                                        @ -- End function
	.section	.text._ZN3arm3app23ExerciseClassifierModelD0Ev,"axG",%progbits,_ZN3arm3app23ExerciseClassifierModelD0Ev,comdat
	.hidden	_ZN3arm3app23ExerciseClassifierModelD0Ev @ -- Begin function _ZN3arm3app23ExerciseClassifierModelD0Ev
	.weak	_ZN3arm3app23ExerciseClassifierModelD0Ev
	.p2align	2
	.type	_ZN3arm3app23ExerciseClassifierModelD0Ev,%function
	.code	16                              @ @_ZN3arm3app23ExerciseClassifierModelD0Ev
	.thumb_func
_ZN3arm3app23ExerciseClassifierModelD0Ev:
.Lfunc_begin8:
	.loc	20 9 0 is_stmt 1                @ ../Model/include\ExerciseClassifierModel.hpp:9:0
	.fnstart
	.cfi_startproc
@ %bb.0:
	@DEBUG_VALUE: ~ExerciseClassifierModel:this <- $r0
	@DEBUG_VALUE: ~ExerciseClassifierModel:this <- $r0
	@DEBUG_VALUE: ~Model:this <- $r0
	.save	{r4, lr}
	push	{r4, lr}
	.cfi_def_cfa_offset 8
	.cfi_offset lr, -4
	.cfi_offset r4, -8
	mov	r4, r0
.Ltmp126:
	@DEBUG_VALUE: ~Model:this <- $r4
	@DEBUG_VALUE: ~ExerciseClassifierModel:this <- $r4
	@DEBUG_VALUE: ~ExerciseClassifierModel:this <- $r4
	.loc	9 528 18 prologue_end           @ AppData\Local\Keil_v5\ARM\ARMCLANG\bin\..\include\libcxx\vector:528:18
	ldr	r0, [r0, #40]
.Ltmp127:
	.loc	29 36 28                        @ ../../../../ThirdParty/ml-embedded-evaluation-kit/source/application/api/common/include\Model.hpp:36:28
	movw	r1, :lower16:_ZTVN3arm3app5ModelE
	movt	r1, :upper16:_ZTVN3arm3app5ModelE
	adds	r1, #8
	str	r1, [r4]
.Ltmp128:
	@DEBUG_VALUE: ~vector:this <- [DW_OP_plus_uconst 40, DW_OP_stack_value] $r4
	.loc	9 528 11                        @ AppData\Local\Keil_v5\ARM\ARMCLANG\bin\..\include\libcxx\vector:528:11
	cbz	r0, .LBB8_2
.Ltmp129:
@ %bb.1:
	@DEBUG_VALUE: ~vector:this <- [DW_OP_plus_uconst 40, DW_OP_stack_value] $r4
	@DEBUG_VALUE: ~ExerciseClassifierModel:this <- $r4
	@DEBUG_VALUE: ~ExerciseClassifierModel:this <- $r4
	@DEBUG_VALUE: ~Model:this <- $r4
	@DEBUG_VALUE: __base_destruct_at_end:__soon_to_be_end <- undef
	.loc	9 637 35                        @ AppData\Local\Keil_v5\ARM\ARMCLANG\bin\..\include\libcxx\vector:637:35
	ldr	r1, [r4, #48]
.Ltmp130:
	@DEBUG_VALUE: __base_destruct_at_end:this <- [DW_OP_plus_uconst 40, DW_OP_stack_value] $r4
	@DEBUG_VALUE: __clear:this <- [DW_OP_plus_uconst 40, DW_OP_stack_value] $r4
	@DEBUG_VALUE: __base_destruct_at_end:__new_last <- $r0
	.loc	9 985 18                        @ AppData\Local\Keil_v5\ARM\ARMCLANG\bin\..\include\libcxx\vector:985:18
	str	r0, [r4, #44]
.Ltmp131:
	@DEBUG_VALUE: __end_cap:this <- [DW_OP_plus_uconst 40, DW_OP_stack_value] $r4
	@DEBUG_VALUE: capacity:this <- [DW_OP_plus_uconst 40, DW_OP_stack_value] $r4
	.loc	9 637 47                        @ AppData\Local\Keil_v5\ARM\ARMCLANG\bin\..\include\libcxx\vector:637:47
	subs	r1, r1, r0
.Ltmp132:
	@DEBUG_VALUE: deallocate:this <- [DW_OP_plus_uconst 40, DW_OP_plus_uconst 8, DW_OP_stack_value] $r4
	@DEBUG_VALUE: deallocate:__a <- [DW_OP_plus_uconst 40, DW_OP_plus_uconst 8, DW_OP_stack_value] $r4
	@DEBUG_VALUE: __libcpp_operator_delete<void *, unsigned int>:__args <- $r0
	@DEBUG_VALUE: __do_deallocate_handle_size<>:__ptr <- $r0
	@DEBUG_VALUE: __libcpp_deallocate:__align <- 4
	@DEBUG_VALUE: __libcpp_deallocate:__ptr <- $r0
	@DEBUG_VALUE: deallocate:__p <- $r0
	@DEBUG_VALUE: deallocate:__p <- $r0
	@DEBUG_VALUE: __libcpp_operator_delete<void *, unsigned int>:__args <- $r1
	@DEBUG_VALUE: __do_deallocate_handle_size<>:__size <- $r1
	@DEBUG_VALUE: __libcpp_deallocate:__size <- $r1
	@DEBUG_VALUE: deallocate:__n <- [DW_OP_constu 2, DW_OP_shra, DW_OP_stack_value] $r1
	@DEBUG_VALUE: deallocate:__n <- [DW_OP_constu 2, DW_OP_shra, DW_OP_stack_value] $r1
	.loc	6 281 3                         @ AppData\Local\Keil_v5\ARM\ARMCLANG\bin\..\include\libcxx\new:281:3
	bl	_ZdlPvj
.Ltmp133:
.LBB8_2:
	@DEBUG_VALUE: ~ExerciseClassifierModel:this <- $r4
	@DEBUG_VALUE: ~ExerciseClassifierModel:this <- $r4
	@DEBUG_VALUE: ~Model:this <- $r4
	@DEBUG_VALUE: ~vector:this <- [DW_OP_plus_uconst 28, DW_OP_stack_value] $r4
	@DEBUG_VALUE: operator():this <- undef
	.loc	9 528 18                        @ AppData\Local\Keil_v5\ARM\ARMCLANG\bin\..\include\libcxx\vector:528:18
	ldr	r0, [r4, #28]
.Ltmp134:
	.loc	9 528 11 is_stmt 0              @ AppData\Local\Keil_v5\ARM\ARMCLANG\bin\..\include\libcxx\vector:528:11
	cbz	r0, .LBB8_4
.Ltmp135:
@ %bb.3:
	@DEBUG_VALUE: ~vector:this <- [DW_OP_plus_uconst 28, DW_OP_stack_value] $r4
	@DEBUG_VALUE: ~ExerciseClassifierModel:this <- $r4
	@DEBUG_VALUE: ~ExerciseClassifierModel:this <- $r4
	@DEBUG_VALUE: ~Model:this <- $r4
	@DEBUG_VALUE: __base_destruct_at_end:__soon_to_be_end <- undef
	.loc	9 637 35 is_stmt 1              @ AppData\Local\Keil_v5\ARM\ARMCLANG\bin\..\include\libcxx\vector:637:35
	ldr	r1, [r4, #36]
.Ltmp136:
	@DEBUG_VALUE: __base_destruct_at_end:this <- [DW_OP_plus_uconst 28, DW_OP_stack_value] $r4
	@DEBUG_VALUE: __clear:this <- [DW_OP_plus_uconst 28, DW_OP_stack_value] $r4
	@DEBUG_VALUE: __base_destruct_at_end:__new_last <- $r0
	.loc	9 985 18                        @ AppData\Local\Keil_v5\ARM\ARMCLANG\bin\..\include\libcxx\vector:985:18
	str	r0, [r4, #32]
.Ltmp137:
	@DEBUG_VALUE: __end_cap:this <- [DW_OP_plus_uconst 28, DW_OP_stack_value] $r4
	@DEBUG_VALUE: capacity:this <- [DW_OP_plus_uconst 28, DW_OP_stack_value] $r4
	.loc	9 637 47                        @ AppData\Local\Keil_v5\ARM\ARMCLANG\bin\..\include\libcxx\vector:637:47
	subs	r1, r1, r0
.Ltmp138:
	@DEBUG_VALUE: deallocate:this <- [DW_OP_plus_uconst 28, DW_OP_plus_uconst 8, DW_OP_stack_value] $r4
	@DEBUG_VALUE: deallocate:__a <- [DW_OP_plus_uconst 28, DW_OP_plus_uconst 8, DW_OP_stack_value] $r4
	@DEBUG_VALUE: __libcpp_operator_delete<void *, unsigned int>:__args <- $r0
	@DEBUG_VALUE: __do_deallocate_handle_size<>:__ptr <- $r0
	@DEBUG_VALUE: __libcpp_deallocate:__align <- 4
	@DEBUG_VALUE: __libcpp_deallocate:__ptr <- $r0
	@DEBUG_VALUE: deallocate:__p <- $r0
	@DEBUG_VALUE: deallocate:__p <- $r0
	@DEBUG_VALUE: __libcpp_operator_delete<void *, unsigned int>:__args <- $r1
	@DEBUG_VALUE: __do_deallocate_handle_size<>:__size <- $r1
	@DEBUG_VALUE: __libcpp_deallocate:__size <- $r1
	@DEBUG_VALUE: deallocate:__n <- [DW_OP_constu 2, DW_OP_shra, DW_OP_stack_value] $r1
	@DEBUG_VALUE: deallocate:__n <- [DW_OP_constu 2, DW_OP_shra, DW_OP_stack_value] $r1
	.loc	6 281 3                         @ AppData\Local\Keil_v5\ARM\ARMCLANG\bin\..\include\libcxx\new:281:3
	bl	_ZdlPvj
.Ltmp139:
.LBB8_4:
	@DEBUG_VALUE: ~ExerciseClassifierModel:this <- $r4
	@DEBUG_VALUE: ~ExerciseClassifierModel:this <- $r4
	@DEBUG_VALUE: ~Model:this <- $r4
	@DEBUG_VALUE: ~unique_ptr:this <- [DW_OP_plus_uconst 8, DW_OP_stack_value] $r4
	@DEBUG_VALUE: reset:this <- [DW_OP_plus_uconst 8, DW_OP_stack_value] $r4
	@DEBUG_VALUE: reset:__p <- 0
	.loc	15 277 29                       @ AppData\Local\Keil_v5\ARM\ARMCLANG\bin\..\include\libcxx\__memory\unique_ptr.h:277:29
	ldr	r0, [r4, #8]
.Ltmp140:
	@DEBUG_VALUE: reset:__tmp <- $r0
	.loc	15 0 29 is_stmt 0               @ AppData\Local\Keil_v5\ARM\ARMCLANG\bin\..\include\libcxx\__memory\unique_ptr.h:0:29
	movs	r1, #0
	.loc	15 278 20 is_stmt 1             @ AppData\Local\Keil_v5\ARM\ARMCLANG\bin\..\include\libcxx\__memory\unique_ptr.h:278:20
	str	r1, [r4, #8]
	.loc	15 279 9                        @ AppData\Local\Keil_v5\ARM\ARMCLANG\bin\..\include\libcxx\__memory\unique_ptr.h:279:9
	cbz	r0, .LBB8_6
.Ltmp141:
@ %bb.5:
	@DEBUG_VALUE: reset:__tmp <- $r0
	@DEBUG_VALUE: reset:__p <- 0
	@DEBUG_VALUE: reset:this <- [DW_OP_plus_uconst 8, DW_OP_stack_value] $r4
	@DEBUG_VALUE: ~unique_ptr:this <- [DW_OP_plus_uconst 8, DW_OP_stack_value] $r4
	@DEBUG_VALUE: ~ExerciseClassifierModel:this <- $r4
	@DEBUG_VALUE: ~ExerciseClassifierModel:this <- $r4
	@DEBUG_VALUE: ~Model:this <- $r4
	@DEBUG_VALUE: operator():__ptr <- $r0
	@DEBUG_VALUE: operator():this <- [DW_OP_plus_uconst 8, DW_OP_stack_value] $r4
	.loc	15 68 5                         @ AppData\Local\Keil_v5\ARM\ARMCLANG\bin\..\include\libcxx\__memory\unique_ptr.h:68:5
	bl	_ZN6tflite16MicroInterpreterD1Ev
.Ltmp142:
	movs	r1, #192
	bl	_ZdlPvj
.Ltmp143:
.LBB8_6:
	@DEBUG_VALUE: ~ExerciseClassifierModel:this <- $r4
	.loc	20 9 7                          @ ../Model/include\ExerciseClassifierModel.hpp:9:7
	mov	r0, r4
.Ltmp144:
	@DEBUG_VALUE: ~ExerciseClassifierModel:this <- $r0
	mov.w	r1, #284
	.loc	20 9 7 epilogue_begin is_stmt 0 @ ../Model/include\ExerciseClassifierModel.hpp:9:7
	pop.w	{r4, lr}
.Ltmp145:
	b	_ZdlPvj
.Ltmp146:
.Lfunc_end8:
	.size	_ZN3arm3app23ExerciseClassifierModelD0Ev, .Lfunc_end8-_ZN3arm3app23ExerciseClassifierModelD0Ev
	.cfi_endproc
	.file	31 "<stdin>"
	.cantunwind
	.fnend
                                        @ -- End function
	.hidden	_ZTVN3arm3app23ExerciseClassifierModelE @ @_ZTVN3arm3app23ExerciseClassifierModelE
	.type	_ZTVN3arm3app23ExerciseClassifierModelE,%object
	.section	.rodata._ZTVN3arm3app23ExerciseClassifierModelE,"a",%progbits
	.globl	_ZTVN3arm3app23ExerciseClassifierModelE
	.p2align	2, 0x0
_ZTVN3arm3app23ExerciseClassifierModelE:
	.long	0
	.long	0
	.long	_ZN3arm3app23ExerciseClassifierModelD2Ev
	.long	_ZN3arm3app23ExerciseClassifierModelD0Ev
	.long	_ZN3arm3app5Model12RunInferenceEv
	.long	_ZN3arm3app23ExerciseClassifierModel13GetOpResolverEv
	.long	_ZN3arm3app23ExerciseClassifierModel16EnlistOperationsEv
	.size	_ZTVN3arm3app23ExerciseClassifierModelE, 28

	.type	.L.str.6,%object                @ @.str.6
	.section	.rodata.str1.1,"aMS",%progbits,1
.L.str.6:
	.asciz	"Calling AddBuiltin with the same op more than "
	.size	.L.str.6, 47

	.type	.L.str.7,%object                @ @.str.7
.L.str.7:
	.asciz	"once is not supported (Op: #%d)."
	.size	.L.str.7, 33

	.type	.L.str.8,%object                @ @.str.8
.L.str.8:
	.asciz	"Couldn't register builtin op #%d, resolver size "
	.size	.L.str.8, 49

	.type	.L.str.9,%object                @ @.str.9
.L.str.9:
	.asciz	"is too small (%d)."
	.size	.L.str.9, 19

	.type	.L.str.10,%object               @ @.str.10
.L.str.10:
	.asciz	"Couldn't register custom op '%s', resolver size is toosmall (%d)"
	.size	.L.str.10, 65

	.hidden	_printf_percent
	.hidden	_printf_s
	.hidden	_printf_str
	.file	32 "C:\\Users\\eding" "AppData\\Local\\Keil_v5\\ARM\\ARMCLANG\\bin\\..\\include\\stdio.h"
	.file	33 "C:\\Users\\eding" "AppData\\Local\\Keil_v5\\ARM\\ARMCLANG\\bin\\..\\include\\libcxx\\cstdio"
	.file	34 "C:\\Users\\eding" "AppData\\Local\\Keil_v5\\ARM\\ARMCLANG\\bin\\..\\include\\string.h"
	.file	35 "C:\\Users\\eding" "AppData\\Local\\Keil_v5\\ARM\\ARMCLANG\\bin\\..\\include\\libcxx\\cstring"
	.file	36 "C:\\Users\\eding" "AppData\\Local\\Keil_v5\\ARM\\ARMCLANG\\bin\\..\\include\\libcxx\\string.h"
	.file	37 "C:\\Users\\eding" "AppData\\Local\\Keil_v5\\ARM\\ARMCLANG\\bin\\..\\include\\stdarg.h"
	.file	38 "C:\\Users\\eding" "AppData\\Local\\Keil_v5\\ARM\\ARMCLANG\\bin\\..\\include\\libcxx\\cstddef"
	.file	39 "C:\\Users\\eding" "AppData\\Local\\Keil_v5\\ARM\\ARMCLANG\\bin\\..\\include\\libcxx\\cstdint"
	.file	40 "C:\\Users\\eding" "AppData\\Local\\Keil_v5\\ARM\\ARMCLANG\\bin\\..\\include\\math.h"
	.file	41 "C:\\Users\\eding" "AppData\\Local\\Keil_v5\\ARM\\ARMCLANG\\bin\\..\\include\\libcxx\\__math\\traits.h"
	.file	42 "C:\\Users\\eding" "AppData\\Local\\Keil_v5\\ARM\\ARMCLANG\\bin\\..\\include\\libcxx\\math.h"
	.file	43 "C:\\Users\\eding" "AppData\\Local\\Keil_v5\\ARM\\ARMCLANG\\bin\\..\\include\\libcxx\\__math\\modulo.h"
	.file	44 "C:\\Users\\eding" "AppData\\Local\\Keil_v5\\ARM\\ARMCLANG\\bin\\..\\include\\libcxx\\cmath"
	.file	45 "C:\\Users\\eding" "AppData\\Local\\Keil_v5\\ARM\\ARMCLANG\\bin\\..\\include\\libcxx\\stdlib.h"
	.file	46 "C:\\Users\\eding" "AppData\\Local\\Keil_v5\\ARM\\ARMCLANG\\bin\\..\\include\\libcxx\\cstdlib"
	.file	47 "C:\\Users\\eding" "AppData\\Local\\Keil_v5\\ARM\\ARMCLANG\\bin\\..\\include\\libcxx\\__std_mbstate_t.h"
	.file	48 "C:\\Users\\eding" "AppData\\Local\\Keil_v5\\ARM\\ARMCLANG\\bin\\..\\include\\libcxx\\cstdarg"
	.file	49 "C:\\Users\\eding" "AppData\\Local\\Keil_v5\\ARM\\ARMCLANG\\bin\\..\\include\\ctype.h"
	.file	50 "C:\\Users\\eding" "AppData\\Local\\Keil_v5\\ARM\\ARMCLANG\\bin\\..\\include\\libcxx\\cctype"
	.file	51 "C:\\Users\\eding" "AppData\\Local\\Keil_v5\\ARM\\ARMCLANG\\bin\\..\\include\\wctype.h"
	.file	52 "C:\\Users\\eding" "AppData\\Local\\Keil_v5\\ARM\\ARMCLANG\\bin\\..\\include\\libcxx\\cwctype"
	.file	53 "C:\\Users\\eding" "AppData\\Local\\Keil_v5\\ARM\\ARMCLANG\\bin\\..\\include\\libcxx\\cwchar"
	.file	54 "C:\\Users\\eding" "AppData\\Local\\Keil_v5\\ARM\\ARMCLANG\\bin\\..\\include\\libcxx\\wchar.h"
	.file	55 "C:\\Users\\eding" "AppData\\Local\\Keil_v5\\ARM\\ARMCLANG\\bin\\..\\include\\libcxx\\__chrono\\duration.h"
	.file	56 "C:\\Users\\eding" "AppData\\Local\\Keil_v5\\ARM\\ARMCLANG\\bin\\..\\include\\libcxx\\ctime"
	.file	57 "C:\\Users\\eding" "AppData\\Local\\Keil_v5\\ARM\\ARMCLANG\\bin\\..\\include\\errno.h"
	.file	58 "C:\\Users\\eding" "AppData\\Local\\Keil_v5\\ARM\\ARMCLANG\\bin\\..\\include\\locale.h"
	.file	59 "C:\\Users\\eding" "AppData\\Local\\Keil_v5\\ARM\\ARMCLANG\\bin\\..\\include\\libcxx\\clocale"