	.text
	.syntax unified
	.eabi_attribute	67, "2.09"	@ Tag_conformance
	.cpu	cortex-m55
	.eabi_attribute	6, 21	@ Tag_CPU_arch
	.eabi_attribute	7, 77	@ Tag_CPU_arch_profile
	.eabi_attribute	8, 0	@ Tag_ARM_ISA_use
	.eabi_attribute	9, 3	@ Tag_THUMB_ISA_use
	.fpu	fpv5-d16
	.arch_extension	mve.fp
	.eabi_attribute	36, 1	@ Tag_FP_HP_extension
	.eabi_attribute	48, 2	@ Tag_MVE_arch
	.eabi_attribute	46, 1	@ Tag_DSP_extension
	.eabi_attribute	34, 1	@ Tag_CPU_unaligned_access
	.eabi_attribute	17, 1	@ Tag_ABI_PCS_GOT_use
	.eabi_attribute	20, 2	@ Tag_ABI_FP_denormal
	.eabi_attribute	21, 0	@ Tag_ABI_FP_exceptions
	.eabi_attribute	23, 1	@ Tag_ABI_FP_number_model
	.eabi_attribute	24, 1	@ Tag_ABI_align_needed
	.eabi_attribute	25, 1	@ Tag_ABI_align_preserved
	.eabi_attribute	28, 1	@ Tag_ABI_VFP_args
	.eabi_attribute	38, 1	@ Tag_ABI_FP_16bit_format
	.eabi_attribute	18, 2	@ Tag_ABI_PCS_wchar_t
	.eabi_attribute	26, 1	@ Tag_ABI_enum_size
	.eabi_attribute	14, 0	@ Tag_ABI_PCS_R9_use
	.file	"spim_hyper.c"
	.file	1 "C:\\Users\\austi" "AppData\\Local\\Keil_v5\\ARM\\ARMCLANG\\bin\\..\\include\\stdint.h"
	.file	2 "C:\\Users\\austi\\OneDrive\\Desktop\\a\\en-us--M55M1_Series_BSP_CMSIS_V3.01.002\\SampleCode\\MachineLearning\\AIFitnessMirror\\KEIL" "../../../../Library/Device/Nuvoton/M55M1/Include\\ccap_reg.h"
	.file	3 "C:\\Users\\austi\\OneDrive\\Desktop\\a\\en-us--M55M1_Series_BSP_CMSIS_V3.01.002\\SampleCode\\MachineLearning\\AIFitnessMirror\\KEIL" "../../../../Library/Device/Nuvoton/M55M1/Include\\pmc_reg.h"
	.file	4 "C:\\Users\\austi\\OneDrive\\Desktop\\a\\en-us--M55M1_Series_BSP_CMSIS_V3.01.002\\SampleCode\\MachineLearning\\AIFitnessMirror\\KEIL" "../../../../Library/Device/Nuvoton/M55M1/Include\\sys_reg.h"
	.section	.text.SPIM_HYPER_Init,"ax",%progbits
	.hidden	SPIM_HYPER_Init                 @ -- Begin function SPIM_HYPER_Init
	.globl	SPIM_HYPER_Init
	.p2align	2
	.type	SPIM_HYPER_Init,%function
	.code	16                              @ @SPIM_HYPER_Init
	.thumb_func
SPIM_HYPER_Init:
.Lfunc_begin0:
	.file	5 "C:\\Users\\austi\\OneDrive\\Desktop\\a\\en-us--M55M1_Series_BSP_CMSIS_V3.01.002\\SampleCode\\MachineLearning\\AIFitnessMirror\\KEIL" "../../../../Library/StdDriver/src/spim_hyper.c"
	.loc	5 197 0                         @ ../../../../Library/StdDriver/src/spim_hyper.c:197:0
	.fnstart
	.cfi_sections .debug_frame
	.cfi_startproc
@ %bb.0:
	@DEBUG_VALUE: SPIM_HYPER_Init:spim <- $r0
	@DEBUG_VALUE: SPIM_HYPER_Init:u32HyperMode <- $r1
	@DEBUG_VALUE: SPIM_HYPER_Init:u32Div <- $r2
	.save	{r4, r5, r6, r7, r8, lr}
	push.w	{r4, r5, r6, r7, r8, lr}
	.cfi_def_cfa_offset 24
	.cfi_offset lr, -4
	.cfi_offset r8, -8
	.cfi_offset r7, -12
	.cfi_offset r6, -16
	.cfi_offset r5, -20
	.cfi_offset r4, -24
	.pad	#8
	sub	sp, #8
	.cfi_def_cfa_offset 32
.Ltmp0:
	.loc	5 134 39 prologue_end           @ ../../../../Library/StdDriver/src/spim_hyper.c:134:39
	movw	r12, :lower16:SystemCoreClock
	movw	r3, #256
	movt	r12, :upper16:SystemCoreClock
	ldr.w	r4, [r12]
	movt	r3, #16384
.Ltmp1:
	@DEBUG_VALUE: SPIM_HYPER_AdjustPowerLevelForHyperBus:i32TimeOutCnt <- [DW_OP_deref] $sp
	.loc	5 134 55 is_stmt 0              @ ../../../../Library/StdDriver/src/spim_hyper.c:134:55
	lsrs	r7, r4, #1
	.loc	5 134 22                        @ ../../../../Library/StdDriver/src/spim_hyper.c:134:22
	str	r7, [sp]
.Ltmp2:
	@DEBUG_VALUE: SPIM_HYPER_AdjustPowerLevelForHyperBus:u32MLDOPL0 <- 0
	.file	6 "C:\\Users\\austi\\OneDrive\\Desktop\\a\\en-us--M55M1_Series_BSP_CMSIS_V3.01.002\\SampleCode\\MachineLearning\\AIFitnessMirror\\KEIL" "../../../../Library/StdDriver/inc\\sys.h"
	.loc	6 4332 17 is_stmt 1             @ ../../../../Library/StdDriver/inc\sys.h:4332:17
	ldr	r7, [r3]
.Ltmp3:
	.loc	5 138 9                         @ ../../../../Library/StdDriver/src/spim_hyper.c:138:9
	lsls.w	lr, r7, #31
	bne	.LBB0_10
.Ltmp4:
@ %bb.1:
	@DEBUG_VALUE: SPIM_HYPER_AdjustPowerLevelForHyperBus:u32MLDOPL0 <- 0
	@DEBUG_VALUE: SPIM_HYPER_AdjustPowerLevelForHyperBus:i32TimeOutCnt <- [DW_OP_deref] $sp
	@DEBUG_VALUE: SPIM_HYPER_Init:u32Div <- $r2
	@DEBUG_VALUE: SPIM_HYPER_Init:u32HyperMode <- $r1
	@DEBUG_VALUE: SPIM_HYPER_Init:spim <- $r0
	.loc	5 0 9 is_stmt 0                 @ ../../../../Library/StdDriver/src/spim_hyper.c:0:9
	mov.w	r8, #89
	movs	r6, #22
	movs	r7, #136
.Ltmp5:
.LBB0_2:                                @ =>This Inner Loop Header: Depth=1
	@DEBUG_VALUE: SPIM_HYPER_AdjustPowerLevelForHyperBus:u32MLDOPL0 <- 0
	@DEBUG_VALUE: SPIM_HYPER_AdjustPowerLevelForHyperBus:i32TimeOutCnt <- [DW_OP_deref] $sp
	@DEBUG_VALUE: SPIM_HYPER_Init:u32Div <- $r2
	@DEBUG_VALUE: SPIM_HYPER_Init:u32HyperMode <- $r1
	@DEBUG_VALUE: SPIM_HYPER_Init:spim <- $r0
	@DEBUG_VALUE: SYS_UnlockReg:u32TimeOutCount <- $r4
	.loc	6 4265 13 is_stmt 1             @ ../../../../Library/StdDriver/inc\sys.h:4265:13
	cmp	r4, #1
	.loc	6 4261 22                       @ ../../../../Library/StdDriver/inc\sys.h:4261:22
	str.w	r8, [r3]
	.loc	6 4262 22                       @ ../../../../Library/StdDriver/inc\sys.h:4262:22
	str	r6, [r3]
	.loc	6 4263 22                       @ ../../../../Library/StdDriver/inc\sys.h:4263:22
	str	r7, [r3]
.Ltmp6:
	@DEBUG_VALUE: SYS_UnlockReg:u32TimeOutCount <- [DW_OP_constu 1, DW_OP_minus, DW_OP_stack_value] $r4
	.loc	6 4265 13                       @ ../../../../Library/StdDriver/inc\sys.h:4265:13
	beq	.LBB0_10
.Ltmp7:
@ %bb.3:                                @   in Loop: Header=BB0_2 Depth=1
	@DEBUG_VALUE: SYS_UnlockReg:u32TimeOutCount <- [DW_OP_constu 1, DW_OP_minus, DW_OP_stack_value] $r4
	@DEBUG_VALUE: SPIM_HYPER_AdjustPowerLevelForHyperBus:u32MLDOPL0 <- 0
	@DEBUG_VALUE: SPIM_HYPER_AdjustPowerLevelForHyperBus:i32TimeOutCnt <- [DW_OP_deref] $sp
	@DEBUG_VALUE: SPIM_HYPER_Init:u32Div <- $r2
	@DEBUG_VALUE: SPIM_HYPER_Init:u32HyperMode <- $r1
	@DEBUG_VALUE: SPIM_HYPER_Init:spim <- $r0
	.loc	6 4266 19                       @ ../../../../Library/StdDriver/inc\sys.h:4266:19
	ldr	r5, [r3]
.Ltmp8:
	.loc	6 4266 5 is_stmt 0              @ ../../../../Library/StdDriver/inc\sys.h:4266:5
	cbnz	r5, .LBB0_10
.Ltmp9:
@ %bb.4:                                @   in Loop: Header=BB0_2 Depth=1
	@DEBUG_VALUE: SYS_UnlockReg:u32TimeOutCount <- [DW_OP_constu 1, DW_OP_minus, DW_OP_stack_value] $r4
	@DEBUG_VALUE: SPIM_HYPER_AdjustPowerLevelForHyperBus:u32MLDOPL0 <- 0
	@DEBUG_VALUE: SPIM_HYPER_AdjustPowerLevelForHyperBus:i32TimeOutCnt <- [DW_OP_deref] $sp
	@DEBUG_VALUE: SPIM_HYPER_Init:u32Div <- $r2
	@DEBUG_VALUE: SPIM_HYPER_Init:u32HyperMode <- $r1
	@DEBUG_VALUE: SPIM_HYPER_Init:spim <- $r0
	@DEBUG_VALUE: SYS_UnlockReg:u32TimeOutCount <- [DW_OP_constu 1, DW_OP_minus, DW_OP_stack_value] $r4
	.loc	6 4265 13 is_stmt 1             @ ../../../../Library/StdDriver/inc\sys.h:4265:13
	cmp	r4, #2
	.loc	6 4261 22                       @ ../../../../Library/StdDriver/inc\sys.h:4261:22
	str.w	r8, [r3]
	.loc	6 4262 22                       @ ../../../../Library/StdDriver/inc\sys.h:4262:22
	str	r6, [r3]
	.loc	6 4263 22                       @ ../../../../Library/StdDriver/inc\sys.h:4263:22
	str	r7, [r3]
.Ltmp10:
	@DEBUG_VALUE: SYS_UnlockReg:u32TimeOutCount <- [DW_OP_constu 2, DW_OP_minus, DW_OP_stack_value] $r4
	.loc	6 4265 13                       @ ../../../../Library/StdDriver/inc\sys.h:4265:13
	beq	.LBB0_10
.Ltmp11:
@ %bb.5:                                @   in Loop: Header=BB0_2 Depth=1
	@DEBUG_VALUE: SYS_UnlockReg:u32TimeOutCount <- [DW_OP_constu 2, DW_OP_minus, DW_OP_stack_value] $r4
	@DEBUG_VALUE: SPIM_HYPER_AdjustPowerLevelForHyperBus:u32MLDOPL0 <- 0
	@DEBUG_VALUE: SPIM_HYPER_AdjustPowerLevelForHyperBus:i32TimeOutCnt <- [DW_OP_deref] $sp
	@DEBUG_VALUE: SPIM_HYPER_Init:u32Div <- $r2
	@DEBUG_VALUE: SPIM_HYPER_Init:u32HyperMode <- $r1
	@DEBUG_VALUE: SPIM_HYPER_Init:spim <- $r0
	.loc	6 4266 19                       @ ../../../../Library/StdDriver/inc\sys.h:4266:19
	ldr	r5, [r3]
.Ltmp12:
	.loc	6 4266 5 is_stmt 0              @ ../../../../Library/StdDriver/inc\sys.h:4266:5
	cbnz	r5, .LBB0_10
.Ltmp13:
@ %bb.6:                                @   in Loop: Header=BB0_2 Depth=1
	@DEBUG_VALUE: SYS_UnlockReg:u32TimeOutCount <- [DW_OP_constu 2, DW_OP_minus, DW_OP_stack_value] $r4
	@DEBUG_VALUE: SPIM_HYPER_AdjustPowerLevelForHyperBus:u32MLDOPL0 <- 0
	@DEBUG_VALUE: SPIM_HYPER_AdjustPowerLevelForHyperBus:i32TimeOutCnt <- [DW_OP_deref] $sp
	@DEBUG_VALUE: SPIM_HYPER_Init:u32Div <- $r2
	@DEBUG_VALUE: SPIM_HYPER_Init:u32HyperMode <- $r1
	@DEBUG_VALUE: SPIM_HYPER_Init:spim <- $r0
	@DEBUG_VALUE: SYS_UnlockReg:u32TimeOutCount <- [DW_OP_constu 2, DW_OP_minus, DW_OP_stack_value] $r4
	.loc	6 4265 13 is_stmt 1             @ ../../../../Library/StdDriver/inc\sys.h:4265:13
	cmp	r4, #3
	.loc	6 4261 22                       @ ../../../../Library/StdDriver/inc\sys.h:4261:22
	str.w	r8, [r3]
	.loc	6 4262 22                       @ ../../../../Library/StdDriver/inc\sys.h:4262:22
	str	r6, [r3]
	.loc	6 4263 22                       @ ../../../../Library/StdDriver/inc\sys.h:4263:22
	str	r7, [r3]
.Ltmp14:
	@DEBUG_VALUE: SYS_UnlockReg:u32TimeOutCount <- [DW_OP_constu 3, DW_OP_minus, DW_OP_stack_value] $r4
	.loc	6 4265 13                       @ ../../../../Library/StdDriver/inc\sys.h:4265:13
	beq	.LBB0_10
.Ltmp15:
@ %bb.7:                                @   in Loop: Header=BB0_2 Depth=1
	@DEBUG_VALUE: SYS_UnlockReg:u32TimeOutCount <- [DW_OP_constu 3, DW_OP_minus, DW_OP_stack_value] $r4
	@DEBUG_VALUE: SPIM_HYPER_AdjustPowerLevelForHyperBus:u32MLDOPL0 <- 0
	@DEBUG_VALUE: SPIM_HYPER_AdjustPowerLevelForHyperBus:i32TimeOutCnt <- [DW_OP_deref] $sp
	@DEBUG_VALUE: SPIM_HYPER_Init:u32Div <- $r2
	@DEBUG_VALUE: SPIM_HYPER_Init:u32HyperMode <- $r1
	@DEBUG_VALUE: SPIM_HYPER_Init:spim <- $r0
	.loc	6 4266 19                       @ ../../../../Library/StdDriver/inc\sys.h:4266:19
	ldr	r5, [r3]
.Ltmp16:
	.loc	6 4266 5 is_stmt 0              @ ../../../../Library/StdDriver/inc\sys.h:4266:5
	cbnz	r5, .LBB0_10
.Ltmp17:
@ %bb.8:                                @   in Loop: Header=BB0_2 Depth=1
	@DEBUG_VALUE: SYS_UnlockReg:u32TimeOutCount <- [DW_OP_constu 3, DW_OP_minus, DW_OP_stack_value] $r4
	@DEBUG_VALUE: SPIM_HYPER_AdjustPowerLevelForHyperBus:u32MLDOPL0 <- 0
	@DEBUG_VALUE: SPIM_HYPER_AdjustPowerLevelForHyperBus:i32TimeOutCnt <- [DW_OP_deref] $sp
	@DEBUG_VALUE: SPIM_HYPER_Init:u32Div <- $r2
	@DEBUG_VALUE: SPIM_HYPER_Init:u32HyperMode <- $r1
	@DEBUG_VALUE: SPIM_HYPER_Init:spim <- $r0
	@DEBUG_VALUE: SYS_UnlockReg:u32TimeOutCount <- [DW_OP_constu 3, DW_OP_minus, DW_OP_stack_value] $r4
	.loc	6 4265 13 is_stmt 1             @ ../../../../Library/StdDriver/inc\sys.h:4265:13
	subs	r4, #4
.Ltmp18:
	@DEBUG_VALUE: SYS_UnlockReg:u32TimeOutCount <- $r4
	.loc	6 4261 22                       @ ../../../../Library/StdDriver/inc\sys.h:4261:22
	str.w	r8, [r3]
	.loc	6 4262 22                       @ ../../../../Library/StdDriver/inc\sys.h:4262:22
	str	r6, [r3]
	.loc	6 4263 22                       @ ../../../../Library/StdDriver/inc\sys.h:4263:22
	str	r7, [r3]
	.loc	6 4265 13                       @ ../../../../Library/StdDriver/inc\sys.h:4265:13
	beq	.LBB0_10
.Ltmp19:
@ %bb.9:                                @   in Loop: Header=BB0_2 Depth=1
	@DEBUG_VALUE: SYS_UnlockReg:u32TimeOutCount <- $r4
	@DEBUG_VALUE: SPIM_HYPER_AdjustPowerLevelForHyperBus:u32MLDOPL0 <- 0
	@DEBUG_VALUE: SPIM_HYPER_AdjustPowerLevelForHyperBus:i32TimeOutCnt <- [DW_OP_deref] $sp
	@DEBUG_VALUE: SPIM_HYPER_Init:u32Div <- $r2
	@DEBUG_VALUE: SPIM_HYPER_Init:u32HyperMode <- $r1
	@DEBUG_VALUE: SPIM_HYPER_Init:spim <- $r0
	.loc	6 4266 19                       @ ../../../../Library/StdDriver/inc\sys.h:4266:19
	ldr	r5, [r3]
.Ltmp20:
	.loc	6 4266 5 is_stmt 0              @ ../../../../Library/StdDriver/inc\sys.h:4266:5
	cbnz	r5, .LBB0_10
	le	.LBB0_2
.Ltmp21:
.LBB0_10:
	@DEBUG_VALUE: SPIM_HYPER_AdjustPowerLevelForHyperBus:u32MLDOPL0 <- 0
	@DEBUG_VALUE: SPIM_HYPER_AdjustPowerLevelForHyperBus:i32TimeOutCnt <- [DW_OP_deref] $sp
	@DEBUG_VALUE: SPIM_HYPER_Init:u32Div <- $r2
	@DEBUG_VALUE: SPIM_HYPER_Init:u32HyperMode <- $r1
	@DEBUG_VALUE: SPIM_HYPER_Init:spim <- $r0
	.loc	6 0 5                           @ ../../../../Library/StdDriver/inc\sys.h:0:5
	movw	r4, #3924
	movt	r4, #16384
	.loc	5 148 19 is_stmt 1              @ ../../../../Library/StdDriver/src/spim_hyper.c:148:19
	ldr	r5, [r4]
.Ltmp22:
	.loc	5 149 5                         @ ../../../../Library/StdDriver/src/spim_hyper.c:149:5
	ldr	r6, [r4]
.Ltmp23:
	.loc	5 148 19                        @ ../../../../Library/StdDriver/src/spim_hyper.c:148:19
	and	r5, r5, #63
	.loc	5 148 55 is_stmt 0              @ ../../../../Library/StdDriver/src/spim_hyper.c:148:55
	adds	r5, #3
.Ltmp24:
	@DEBUG_VALUE: SPIM_HYPER_AdjustPowerLevelForHyperBus:u32MLDOPL0 <- $r5
	.loc	5 149 5 is_stmt 1               @ ../../../../Library/StdDriver/src/spim_hyper.c:149:5
	bic	r6, r6, #63
	orrs	r5, r6
.Ltmp25:
	@DEBUG_VALUE: u32Value <- $r5
	str	r5, [r4]
.Ltmp26:
	.loc	5 151 22                        @ ../../../../Library/StdDriver/src/spim_hyper.c:151:22
	ldr.w	r5, [r12]
.Ltmp27:
	.loc	5 151 38 is_stmt 0              @ ../../../../Library/StdDriver/src/spim_hyper.c:151:38
	lsrs	r6, r5, #1
	.loc	5 151 19                        @ ../../../../Library/StdDriver/src/spim_hyper.c:151:19
	str	r6, [sp]
	@DEBUG_VALUE: SPIM_HYPER_AdjustPowerLevelForHyperBus:i32TimeOutCnt <- [DW_OP_deref] $sp
.Ltmp28:
.LBB0_11:                               @ =>This Inner Loop Header: Depth=1
	@DEBUG_VALUE: SPIM_HYPER_AdjustPowerLevelForHyperBus:i32TimeOutCnt <- [DW_OP_deref] $sp
	@DEBUG_VALUE: SPIM_HYPER_Init:u32Div <- $r2
	@DEBUG_VALUE: SPIM_HYPER_Init:u32HyperMode <- $r1
	@DEBUG_VALUE: SPIM_HYPER_Init:spim <- $r0
	.loc	5 157 12 is_stmt 1              @ ../../../../Library/StdDriver/src/spim_hyper.c:157:12
	ldr	r5, [r4]
	.loc	5 157 5 is_stmt 0               @ ../../../../Library/StdDriver/src/spim_hyper.c:157:5
	cmp.w	r5, #-1
	bgt	.LBB0_19
.Ltmp29:
@ %bb.12:                               @   in Loop: Header=BB0_11 Depth=1
	@DEBUG_VALUE: SPIM_HYPER_AdjustPowerLevelForHyperBus:i32TimeOutCnt <- [DW_OP_deref] $sp
	@DEBUG_VALUE: SPIM_HYPER_Init:u32Div <- $r2
	@DEBUG_VALUE: SPIM_HYPER_Init:u32HyperMode <- $r1
	@DEBUG_VALUE: SPIM_HYPER_Init:spim <- $r0
	.loc	5 158 26 is_stmt 1              @ ../../../../Library/StdDriver/src/spim_hyper.c:158:26
	ldr	r5, [sp]
	subs	r5, #1
	str	r5, [sp]
.Ltmp30:
	@DEBUG_VALUE: SPIM_HYPER_AdjustPowerLevelForHyperBus:i32TimeOutCnt <- [DW_OP_constu 1, DW_OP_minus, DW_OP_stack_value] undef
	.loc	5 158 13 is_stmt 0              @ ../../../../Library/StdDriver/src/spim_hyper.c:158:13
	blt	.LBB0_19
.Ltmp31:
@ %bb.13:                               @   in Loop: Header=BB0_11 Depth=1
	@DEBUG_VALUE: SPIM_HYPER_Init:u32Div <- $r2
	@DEBUG_VALUE: SPIM_HYPER_Init:u32HyperMode <- $r1
	@DEBUG_VALUE: SPIM_HYPER_Init:spim <- $r0
	.loc	5 157 12 is_stmt 1              @ ../../../../Library/StdDriver/src/spim_hyper.c:157:12
	ldr	r5, [r4]
	.loc	5 157 5 is_stmt 0               @ ../../../../Library/StdDriver/src/spim_hyper.c:157:5
	cmp.w	r5, #-1
	bgt	.LBB0_19
.Ltmp32:
@ %bb.14:                               @   in Loop: Header=BB0_11 Depth=1
	@DEBUG_VALUE: SPIM_HYPER_Init:u32Div <- $r2
	@DEBUG_VALUE: SPIM_HYPER_Init:u32HyperMode <- $r1
	@DEBUG_VALUE: SPIM_HYPER_Init:spim <- $r0
	.loc	5 158 26 is_stmt 1              @ ../../../../Library/StdDriver/src/spim_hyper.c:158:26
	ldr	r5, [sp]
	subs	r5, #1
	str	r5, [sp]
.Ltmp33:
	@DEBUG_VALUE: SPIM_HYPER_AdjustPowerLevelForHyperBus:i32TimeOutCnt <- [DW_OP_constu 1, DW_OP_minus, DW_OP_stack_value] undef
	.loc	5 158 13 is_stmt 0              @ ../../../../Library/StdDriver/src/spim_hyper.c:158:13
	blt	.LBB0_19
.Ltmp34:
@ %bb.15:                               @   in Loop: Header=BB0_11 Depth=1
	@DEBUG_VALUE: SPIM_HYPER_Init:u32Div <- $r2
	@DEBUG_VALUE: SPIM_HYPER_Init:u32HyperMode <- $r1
	@DEBUG_VALUE: SPIM_HYPER_Init:spim <- $r0
	.loc	5 157 12 is_stmt 1              @ ../../../../Library/StdDriver/src/spim_hyper.c:157:12
	ldr	r5, [r4]
	.loc	5 157 5 is_stmt 0               @ ../../../../Library/StdDriver/src/spim_hyper.c:157:5
	cmp.w	r5, #-1
	bgt	.LBB0_19
.Ltmp35:
@ %bb.16:                               @   in Loop: Header=BB0_11 Depth=1
	@DEBUG_VALUE: SPIM_HYPER_Init:u32Div <- $r2
	@DEBUG_VALUE: SPIM_HYPER_Init:u32HyperMode <- $r1
	@DEBUG_VALUE: SPIM_HYPER_Init:spim <- $r0
	.loc	5 158 26 is_stmt 1              @ ../../../../Library/StdDriver/src/spim_hyper.c:158:26
	ldr	r5, [sp]
	subs	r5, #1
	str	r5, [sp]
.Ltmp36:
	@DEBUG_VALUE: SPIM_HYPER_AdjustPowerLevelForHyperBus:i32TimeOutCnt <- [DW_OP_constu 1, DW_OP_minus, DW_OP_stack_value] undef
	.loc	5 158 13 is_stmt 0              @ ../../../../Library/StdDriver/src/spim_hyper.c:158:13
	blt	.LBB0_19
.Ltmp37:
@ %bb.17:                               @   in Loop: Header=BB0_11 Depth=1
	@DEBUG_VALUE: SPIM_HYPER_Init:u32Div <- $r2
	@DEBUG_VALUE: SPIM_HYPER_Init:u32HyperMode <- $r1
	@DEBUG_VALUE: SPIM_HYPER_Init:spim <- $r0
	.loc	5 157 12 is_stmt 1              @ ../../../../Library/StdDriver/src/spim_hyper.c:157:12
	ldr	r5, [r4]
	.loc	5 157 5 is_stmt 0               @ ../../../../Library/StdDriver/src/spim_hyper.c:157:5
	cmp.w	r5, #-1
	bgt	.LBB0_19
.Ltmp38:
@ %bb.18:                               @   in Loop: Header=BB0_11 Depth=1
	@DEBUG_VALUE: SPIM_HYPER_Init:u32Div <- $r2
	@DEBUG_VALUE: SPIM_HYPER_Init:u32HyperMode <- $r1
	@DEBUG_VALUE: SPIM_HYPER_Init:spim <- $r0
	.loc	5 158 26 is_stmt 1              @ ../../../../Library/StdDriver/src/spim_hyper.c:158:26
	ldr	r5, [sp]
	subs	r7, r5, #1
.Ltmp39:
	.loc	5 158 13 is_stmt 0              @ ../../../../Library/StdDriver/src/spim_hyper.c:158:13
	cmp	r5, #0
.Ltmp40:
	.loc	5 158 26                        @ ../../../../Library/StdDriver/src/spim_hyper.c:158:26
	str	r7, [sp]
.Ltmp41:
	@DEBUG_VALUE: SPIM_HYPER_AdjustPowerLevelForHyperBus:i32TimeOutCnt <- [DW_OP_deref] $sp
	.loc	5 158 13                        @ ../../../../Library/StdDriver/src/spim_hyper.c:158:13
	bgt	.LBB0_11
.Ltmp42:
.LBB0_19:
	@DEBUG_VALUE: SPIM_HYPER_Init:u32Div <- $r2
	@DEBUG_VALUE: SPIM_HYPER_Init:u32HyperMode <- $r1
	@DEBUG_VALUE: SPIM_HYPER_Init:spim <- $r0
	.loc	5 0 13                          @ ../../../../Library/StdDriver/src/spim_hyper.c:0:13
	movw	r5, #8208
	.loc	5 160 19 is_stmt 1              @ ../../../../Library/StdDriver/src/spim_hyper.c:160:19
	str	r6, [sp]
.Ltmp43:
	@DEBUG_VALUE: SPIM_HYPER_AdjustPowerLevelForHyperBus:i32TimeOutCnt <- [DW_OP_deref] $sp
	.loc	5 0 19 is_stmt 0                @ ../../../../Library/StdDriver/src/spim_hyper.c:0:19
	movt	r5, #16384
.Ltmp44:
.LBB0_20:                               @ =>This Inner Loop Header: Depth=1
	@DEBUG_VALUE: SPIM_HYPER_AdjustPowerLevelForHyperBus:i32TimeOutCnt <- [DW_OP_deref] $sp
	@DEBUG_VALUE: SPIM_HYPER_Init:u32Div <- $r2
	@DEBUG_VALUE: SPIM_HYPER_Init:u32HyperMode <- $r1
	@DEBUG_VALUE: SPIM_HYPER_Init:spim <- $r0
	.loc	5 163 12 is_stmt 1              @ ../../../../Library/StdDriver/src/spim_hyper.c:163:12
	ldr	r6, [r5]
	.loc	5 163 5 is_stmt 0               @ ../../../../Library/StdDriver/src/spim_hyper.c:163:5
	cmp.w	r6, #-1
	bgt	.LBB0_28
.Ltmp45:
@ %bb.21:                               @   in Loop: Header=BB0_20 Depth=1
	@DEBUG_VALUE: SPIM_HYPER_AdjustPowerLevelForHyperBus:i32TimeOutCnt <- [DW_OP_deref] $sp
	@DEBUG_VALUE: SPIM_HYPER_Init:u32Div <- $r2
	@DEBUG_VALUE: SPIM_HYPER_Init:u32HyperMode <- $r1
	@DEBUG_VALUE: SPIM_HYPER_Init:spim <- $r0
	.loc	5 164 26 is_stmt 1              @ ../../../../Library/StdDriver/src/spim_hyper.c:164:26
	ldr	r6, [sp]
	subs	r6, #1
	str	r6, [sp]
.Ltmp46:
	@DEBUG_VALUE: SPIM_HYPER_AdjustPowerLevelForHyperBus:i32TimeOutCnt <- [DW_OP_constu 1, DW_OP_minus, DW_OP_stack_value] undef
	.loc	5 164 13 is_stmt 0              @ ../../../../Library/StdDriver/src/spim_hyper.c:164:13
	blt	.LBB0_28
.Ltmp47:
@ %bb.22:                               @   in Loop: Header=BB0_20 Depth=1
	@DEBUG_VALUE: SPIM_HYPER_Init:u32Div <- $r2
	@DEBUG_VALUE: SPIM_HYPER_Init:u32HyperMode <- $r1
	@DEBUG_VALUE: SPIM_HYPER_Init:spim <- $r0
	.loc	5 163 12 is_stmt 1              @ ../../../../Library/StdDriver/src/spim_hyper.c:163:12
	ldr	r6, [r5]
	.loc	5 163 5 is_stmt 0               @ ../../../../Library/StdDriver/src/spim_hyper.c:163:5
	cmp.w	r6, #-1
	bgt	.LBB0_28
.Ltmp48:
@ %bb.23:                               @   in Loop: Header=BB0_20 Depth=1
	@DEBUG_VALUE: SPIM_HYPER_Init:u32Div <- $r2
	@DEBUG_VALUE: SPIM_HYPER_Init:u32HyperMode <- $r1
	@DEBUG_VALUE: SPIM_HYPER_Init:spim <- $r0
	.loc	5 164 26 is_stmt 1              @ ../../../../Library/StdDriver/src/spim_hyper.c:164:26
	ldr	r6, [sp]
	subs	r6, #1
	str	r6, [sp]
.Ltmp49:
	@DEBUG_VALUE: SPIM_HYPER_AdjustPowerLevelForHyperBus:i32TimeOutCnt <- [DW_OP_constu 1, DW_OP_minus, DW_OP_stack_value] undef
	.loc	5 164 13 is_stmt 0              @ ../../../../Library/StdDriver/src/spim_hyper.c:164:13
	blt	.LBB0_28
.Ltmp50:
@ %bb.24:                               @   in Loop: Header=BB0_20 Depth=1
	@DEBUG_VALUE: SPIM_HYPER_Init:u32Div <- $r2
	@DEBUG_VALUE: SPIM_HYPER_Init:u32HyperMode <- $r1
	@DEBUG_VALUE: SPIM_HYPER_Init:spim <- $r0
	.loc	5 163 12 is_stmt 1              @ ../../../../Library/StdDriver/src/spim_hyper.c:163:12
	ldr	r6, [r5]
	.loc	5 163 5 is_stmt 0               @ ../../../../Library/StdDriver/src/spim_hyper.c:163:5
	cmp.w	r6, #-1
	bgt	.LBB0_28
.Ltmp51:
@ %bb.25:                               @   in Loop: Header=BB0_20 Depth=1
	@DEBUG_VALUE: SPIM_HYPER_Init:u32Div <- $r2
	@DEBUG_VALUE: SPIM_HYPER_Init:u32HyperMode <- $r1
	@DEBUG_VALUE: SPIM_HYPER_Init:spim <- $r0
	.loc	5 164 26 is_stmt 1              @ ../../../../Library/StdDriver/src/spim_hyper.c:164:26
	ldr	r6, [sp]
	subs	r6, #1
	str	r6, [sp]
.Ltmp52:
	@DEBUG_VALUE: SPIM_HYPER_AdjustPowerLevelForHyperBus:i32TimeOutCnt <- [DW_OP_constu 1, DW_OP_minus, DW_OP_stack_value] undef
	.loc	5 164 13 is_stmt 0              @ ../../../../Library/StdDriver/src/spim_hyper.c:164:13
	blt	.LBB0_28
.Ltmp53:
@ %bb.26:                               @   in Loop: Header=BB0_20 Depth=1
	@DEBUG_VALUE: SPIM_HYPER_Init:u32Div <- $r2
	@DEBUG_VALUE: SPIM_HYPER_Init:u32HyperMode <- $r1
	@DEBUG_VALUE: SPIM_HYPER_Init:spim <- $r0
	.loc	5 163 12 is_stmt 1              @ ../../../../Library/StdDriver/src/spim_hyper.c:163:12
	ldr	r6, [r5]
	.loc	5 163 5 is_stmt 0               @ ../../../../Library/StdDriver/src/spim_hyper.c:163:5
	cmp.w	r6, #-1
	bgt	.LBB0_28
.Ltmp54:
@ %bb.27:                               @   in Loop: Header=BB0_20 Depth=1
	@DEBUG_VALUE: SPIM_HYPER_Init:u32Div <- $r2
	@DEBUG_VALUE: SPIM_HYPER_Init:u32HyperMode <- $r1
	@DEBUG_VALUE: SPIM_HYPER_Init:spim <- $r0
	.loc	5 164 26 is_stmt 1              @ ../../../../Library/StdDriver/src/spim_hyper.c:164:26
	ldr	r6, [sp]
	subs	r7, r6, #1
.Ltmp55:
	.loc	5 164 13 is_stmt 0              @ ../../../../Library/StdDriver/src/spim_hyper.c:164:13
	cmp	r6, #0
.Ltmp56:
	.loc	5 164 26                        @ ../../../../Library/StdDriver/src/spim_hyper.c:164:26
	str	r7, [sp]
.Ltmp57:
	@DEBUG_VALUE: SPIM_HYPER_AdjustPowerLevelForHyperBus:i32TimeOutCnt <- [DW_OP_deref] $sp
	.loc	5 164 13                        @ ../../../../Library/StdDriver/src/spim_hyper.c:164:13
	bgt	.LBB0_20
.Ltmp58:
.LBB0_28:
	@DEBUG_VALUE: SPIM_HYPER_Init:u32Div <- $r2
	@DEBUG_VALUE: SPIM_HYPER_Init:u32HyperMode <- $r1
	@DEBUG_VALUE: SPIM_HYPER_Init:spim <- $r0
	.loc	5 167 24 is_stmt 1              @ ../../../../Library/StdDriver/src/spim_hyper.c:167:24
	ldr	r6, [r5]
	.loc	5 167 30 is_stmt 0              @ ../../../../Library/StdDriver/src/spim_hyper.c:167:30
	bic	r6, r6, #3
	.loc	5 167 16                        @ ../../../../Library/StdDriver/src/spim_hyper.c:167:16
	str	r6, [r5]
	.loc	5 169 22 is_stmt 1              @ ../../../../Library/StdDriver/src/spim_hyper.c:169:22
	ldr.w	r6, [r12]
	.loc	5 169 38 is_stmt 0              @ ../../../../Library/StdDriver/src/spim_hyper.c:169:38
	lsrs	r6, r6, #1
	.loc	5 169 19                        @ ../../../../Library/StdDriver/src/spim_hyper.c:169:19
	str	r6, [sp]
.Ltmp59:
	@DEBUG_VALUE: SPIM_HYPER_AdjustPowerLevelForHyperBus:i32TimeOutCnt <- [DW_OP_deref] $sp
.LBB0_29:                               @ =>This Inner Loop Header: Depth=1
	@DEBUG_VALUE: SPIM_HYPER_AdjustPowerLevelForHyperBus:i32TimeOutCnt <- [DW_OP_deref] $sp
	@DEBUG_VALUE: SPIM_HYPER_Init:u32Div <- $r2
	@DEBUG_VALUE: SPIM_HYPER_Init:u32HyperMode <- $r1
	@DEBUG_VALUE: SPIM_HYPER_Init:spim <- $r0
	.loc	5 172 12 is_stmt 1              @ ../../../../Library/StdDriver/src/spim_hyper.c:172:12
	ldr	r6, [r5]
	.loc	5 172 5 is_stmt 0               @ ../../../../Library/StdDriver/src/spim_hyper.c:172:5
	cmp.w	r6, #-1
	bgt	.LBB0_37
.Ltmp60:
@ %bb.30:                               @   in Loop: Header=BB0_29 Depth=1
	@DEBUG_VALUE: SPIM_HYPER_AdjustPowerLevelForHyperBus:i32TimeOutCnt <- [DW_OP_deref] $sp
	@DEBUG_VALUE: SPIM_HYPER_Init:u32Div <- $r2
	@DEBUG_VALUE: SPIM_HYPER_Init:u32HyperMode <- $r1
	@DEBUG_VALUE: SPIM_HYPER_Init:spim <- $r0
	.loc	5 173 26 is_stmt 1              @ ../../../../Library/StdDriver/src/spim_hyper.c:173:26
	ldr	r6, [sp]
	subs	r6, #1
	str	r6, [sp]
.Ltmp61:
	@DEBUG_VALUE: SPIM_HYPER_AdjustPowerLevelForHyperBus:i32TimeOutCnt <- [DW_OP_constu 1, DW_OP_minus, DW_OP_stack_value] undef
	.loc	5 173 13 is_stmt 0              @ ../../../../Library/StdDriver/src/spim_hyper.c:173:13
	blt	.LBB0_37
.Ltmp62:
@ %bb.31:                               @   in Loop: Header=BB0_29 Depth=1
	@DEBUG_VALUE: SPIM_HYPER_Init:u32Div <- $r2
	@DEBUG_VALUE: SPIM_HYPER_Init:u32HyperMode <- $r1
	@DEBUG_VALUE: SPIM_HYPER_Init:spim <- $r0
	.loc	5 172 12 is_stmt 1              @ ../../../../Library/StdDriver/src/spim_hyper.c:172:12
	ldr	r6, [r5]
	.loc	5 172 5 is_stmt 0               @ ../../../../Library/StdDriver/src/spim_hyper.c:172:5
	cmp.w	r6, #-1
	bgt	.LBB0_37
.Ltmp63:
@ %bb.32:                               @   in Loop: Header=BB0_29 Depth=1
	@DEBUG_VALUE: SPIM_HYPER_Init:u32Div <- $r2
	@DEBUG_VALUE: SPIM_HYPER_Init:u32HyperMode <- $r1
	@DEBUG_VALUE: SPIM_HYPER_Init:spim <- $r0
	.loc	5 173 26 is_stmt 1              @ ../../../../Library/StdDriver/src/spim_hyper.c:173:26
	ldr	r6, [sp]
	subs	r6, #1
	str	r6, [sp]
.Ltmp64:
	@DEBUG_VALUE: SPIM_HYPER_AdjustPowerLevelForHyperBus:i32TimeOutCnt <- [DW_OP_constu 1, DW_OP_minus, DW_OP_stack_value] undef
	.loc	5 173 13 is_stmt 0              @ ../../../../Library/StdDriver/src/spim_hyper.c:173:13
	blt	.LBB0_37
.Ltmp65:
@ %bb.33:                               @   in Loop: Header=BB0_29 Depth=1
	@DEBUG_VALUE: SPIM_HYPER_Init:u32Div <- $r2
	@DEBUG_VALUE: SPIM_HYPER_Init:u32HyperMode <- $r1
	@DEBUG_VALUE: SPIM_HYPER_Init:spim <- $r0
	.loc	5 172 12 is_stmt 1              @ ../../../../Library/StdDriver/src/spim_hyper.c:172:12
	ldr	r6, [r5]
	.loc	5 172 5 is_stmt 0               @ ../../../../Library/StdDriver/src/spim_hyper.c:172:5
	cmp.w	r6, #-1
	bgt	.LBB0_37
.Ltmp66:
@ %bb.34:                               @   in Loop: Header=BB0_29 Depth=1
	@DEBUG_VALUE: SPIM_HYPER_Init:u32Div <- $r2
	@DEBUG_VALUE: SPIM_HYPER_Init:u32HyperMode <- $r1
	@DEBUG_VALUE: SPIM_HYPER_Init:spim <- $r0
	.loc	5 173 26 is_stmt 1              @ ../../../../Library/StdDriver/src/spim_hyper.c:173:26
	ldr	r6, [sp]
	subs	r6, #1
	str	r6, [sp]
.Ltmp67:
	@DEBUG_VALUE: SPIM_HYPER_AdjustPowerLevelForHyperBus:i32TimeOutCnt <- [DW_OP_constu 1, DW_OP_minus, DW_OP_stack_value] undef
	.loc	5 173 13 is_stmt 0              @ ../../../../Library/StdDriver/src/spim_hyper.c:173:13
	blt	.LBB0_37
.Ltmp68:
@ %bb.35:                               @   in Loop: Header=BB0_29 Depth=1
	@DEBUG_VALUE: SPIM_HYPER_Init:u32Div <- $r2
	@DEBUG_VALUE: SPIM_HYPER_Init:u32HyperMode <- $r1
	@DEBUG_VALUE: SPIM_HYPER_Init:spim <- $r0
	.loc	5 172 12 is_stmt 1              @ ../../../../Library/StdDriver/src/spim_hyper.c:172:12
	ldr	r6, [r5]
	.loc	5 172 5 is_stmt 0               @ ../../../../Library/StdDriver/src/spim_hyper.c:172:5
	cmp.w	r6, #-1
	bgt	.LBB0_37
.Ltmp69:
@ %bb.36:                               @   in Loop: Header=BB0_29 Depth=1
	@DEBUG_VALUE: SPIM_HYPER_Init:u32Div <- $r2
	@DEBUG_VALUE: SPIM_HYPER_Init:u32HyperMode <- $r1
	@DEBUG_VALUE: SPIM_HYPER_Init:spim <- $r0
	.loc	5 173 26 is_stmt 1              @ ../../../../Library/StdDriver/src/spim_hyper.c:173:26
	ldr	r6, [sp]
	subs	r7, r6, #1
.Ltmp70:
	.loc	5 173 13 is_stmt 0              @ ../../../../Library/StdDriver/src/spim_hyper.c:173:13
	cmp	r6, #0
.Ltmp71:
	.loc	5 173 26                        @ ../../../../Library/StdDriver/src/spim_hyper.c:173:26
	str	r7, [sp]
.Ltmp72:
	@DEBUG_VALUE: SPIM_HYPER_AdjustPowerLevelForHyperBus:i32TimeOutCnt <- [DW_OP_deref] $sp
	.loc	5 173 13                        @ ../../../../Library/StdDriver/src/spim_hyper.c:173:13
	bgt	.LBB0_29
.Ltmp73:
.LBB0_37:
	@DEBUG_VALUE: SPIM_HYPER_Init:u32Div <- $r2
	@DEBUG_VALUE: SPIM_HYPER_Init:u32HyperMode <- $r1
	@DEBUG_VALUE: SPIM_HYPER_Init:spim <- $r0
	.loc	5 176 19 is_stmt 1              @ ../../../../Library/StdDriver/src/spim_hyper.c:176:19
	ldr	r5, [r4, #44]
.Ltmp74:
	.loc	5 177 5                         @ ../../../../Library/StdDriver/src/spim_hyper.c:177:5
	ldr	r6, [r4, #44]
.Ltmp75:
	.loc	5 176 19                        @ ../../../../Library/StdDriver/src/spim_hyper.c:176:19
	and	r5, r5, #15
	.loc	5 176 57 is_stmt 0              @ ../../../../Library/StdDriver/src/spim_hyper.c:176:57
	adds	r5, #5
.Ltmp76:
	@DEBUG_VALUE: SPIM_HYPER_AdjustPowerLevelForHyperBus:u32MLDOPL0 <- $r5
	.loc	5 177 5 is_stmt 1               @ ../../../../Library/StdDriver/src/spim_hyper.c:177:5
	bic	r6, r6, #15
	orrs	r5, r6
.Ltmp77:
	@DEBUG_VALUE: u32Value <- $r5
	.loc	5 179 9                         @ ../../../../Library/StdDriver/src/spim_hyper.c:179:9
	cmp.w	lr, #0
.Ltmp78:
	.loc	5 177 5                         @ ../../../../Library/StdDriver/src/spim_hyper.c:177:5
	str	r5, [r4, #44]
	itt	eq
	moveq	r7, #0
.Ltmp79:
	.loc	6 4278 18                       @ ../../../../Library/StdDriver/inc\sys.h:4278:18
	streq	r7, [r3]
.Ltmp80:
	.loc	5 204 5                         @ ../../../../Library/StdDriver/src/spim_hyper.c:204:5
	ldr	r3, [r0]
	bic	r3, r3, #12
	orr.w	r1, r3, r1, lsl #2
.Ltmp81:
	@DEBUG_VALUE: SPIM_HYPER_Init:u32HyperMode <- [DW_OP_LLVM_entry_value 1] $r1
	str	r1, [r0]
.Ltmp82:
	@DEBUG_VALUE: SPIM_HYPER_WAIT_DMMDONE:spim <- $r0
	@DEBUG_VALUE: SPIM_HYPER_WAIT_DMMDONE:u32TimeOutCount <- [DW_OP_plus_uconst 4, DW_OP_deref] $sp
	@DEBUG_VALUE: SPIM_HYPER_DISABLE_CIPHER:spim <- $r0
	.file	7 "C:\\Users\\austi\\OneDrive\\Desktop\\a\\en-us--M55M1_Series_BSP_CMSIS_V3.01.002\\SampleCode\\MachineLearning\\AIFitnessMirror\\KEIL" "../../../../Library/StdDriver/inc\\spim_hyper.h"
	.loc	7 642 40                        @ ../../../../Library/StdDriver/inc\spim_hyper.h:642:40
	ldr.w	r1, [r12]
	.loc	7 642 22 is_stmt 0              @ ../../../../Library/StdDriver/inc\spim_hyper.h:642:22
	str	r1, [sp, #4]
	.loc	7 644 5 is_stmt 1               @ ../../../../Library/StdDriver/inc\spim_hyper.h:644:5
	ldr	r3, [r0, #68]
	orr	r3, r3, #134217728
	str	r3, [r0, #68]
.Ltmp83:
.LBB0_38:                               @ =>This Inner Loop Header: Depth=1
	@DEBUG_VALUE: SPIM_HYPER_DISABLE_CIPHER:spim <- $r0
	@DEBUG_VALUE: SPIM_HYPER_WAIT_DMMDONE:u32TimeOutCount <- [DW_OP_plus_uconst 4, DW_OP_deref] $sp
	@DEBUG_VALUE: SPIM_HYPER_WAIT_DMMDONE:spim <- $r0
	@DEBUG_VALUE: SPIM_HYPER_Init:u32HyperMode <- [DW_OP_LLVM_entry_value 1] $r1
	@DEBUG_VALUE: SPIM_HYPER_Init:u32Div <- $r2
	@DEBUG_VALUE: SPIM_HYPER_Init:spim <- $r0
	.loc	7 646 12                        @ ../../../../Library/StdDriver/inc\spim_hyper.h:646:12
	ldr	r3, [r0, #68]
	.loc	7 646 5 is_stmt 0               @ ../../../../Library/StdDriver/inc\spim_hyper.h:646:5
	lsls	r3, r3, #4
	bpl	.LBB0_46
.Ltmp84:
@ %bb.39:                               @   in Loop: Header=BB0_38 Depth=1
	@DEBUG_VALUE: SPIM_HYPER_DISABLE_CIPHER:spim <- $r0
	@DEBUG_VALUE: SPIM_HYPER_WAIT_DMMDONE:u32TimeOutCount <- [DW_OP_plus_uconst 4, DW_OP_deref] $sp
	@DEBUG_VALUE: SPIM_HYPER_WAIT_DMMDONE:spim <- $r0
	@DEBUG_VALUE: SPIM_HYPER_Init:u32HyperMode <- [DW_OP_LLVM_entry_value 1] $r1
	@DEBUG_VALUE: SPIM_HYPER_Init:u32Div <- $r2
	@DEBUG_VALUE: SPIM_HYPER_Init:spim <- $r0
	.loc	7 648 13 is_stmt 1              @ ../../../../Library/StdDriver/inc\spim_hyper.h:648:13
	ldr	r3, [sp, #4]
	subs	r7, r3, #1
.Ltmp85:
	.loc	7 648 13 is_stmt 0              @ ../../../../Library/StdDriver/inc\spim_hyper.h:648:13
	cmp	r3, #2
.Ltmp86:
	@DEBUG_VALUE: SPIM_HYPER_WAIT_DMMDONE:u32TimeOutCount <- [DW_OP_constu 1, DW_OP_minus, DW_OP_stack_value] undef
	.loc	7 648 13                        @ ../../../../Library/StdDriver/inc\spim_hyper.h:648:13
	str	r7, [sp, #4]
.Ltmp87:
	.loc	7 648 13                        @ ../../../../Library/StdDriver/inc\spim_hyper.h:648:13
	blt	.LBB0_46
.Ltmp88:
@ %bb.40:                               @   in Loop: Header=BB0_38 Depth=1
	@DEBUG_VALUE: SPIM_HYPER_DISABLE_CIPHER:spim <- $r0
	@DEBUG_VALUE: SPIM_HYPER_WAIT_DMMDONE:spim <- $r0
	@DEBUG_VALUE: SPIM_HYPER_Init:u32HyperMode <- [DW_OP_LLVM_entry_value 1] $r1
	@DEBUG_VALUE: SPIM_HYPER_Init:u32Div <- $r2
	@DEBUG_VALUE: SPIM_HYPER_Init:spim <- $r0
	.loc	7 646 12 is_stmt 1              @ ../../../../Library/StdDriver/inc\spim_hyper.h:646:12
	ldr	r3, [r0, #68]
	.loc	7 646 5 is_stmt 0               @ ../../../../Library/StdDriver/inc\spim_hyper.h:646:5
	lsls	r3, r3, #4
	bpl	.LBB0_46
.Ltmp89:
@ %bb.41:                               @   in Loop: Header=BB0_38 Depth=1
	@DEBUG_VALUE: SPIM_HYPER_DISABLE_CIPHER:spim <- $r0
	@DEBUG_VALUE: SPIM_HYPER_WAIT_DMMDONE:spim <- $r0
	@DEBUG_VALUE: SPIM_HYPER_Init:u32HyperMode <- [DW_OP_LLVM_entry_value 1] $r1
	@DEBUG_VALUE: SPIM_HYPER_Init:u32Div <- $r2
	@DEBUG_VALUE: SPIM_HYPER_Init:spim <- $r0
	.loc	7 648 13 is_stmt 1              @ ../../../../Library/StdDriver/inc\spim_hyper.h:648:13
	ldr	r3, [sp, #4]
	subs	r7, r3, #1
.Ltmp90:
	.loc	7 648 13 is_stmt 0              @ ../../../../Library/StdDriver/inc\spim_hyper.h:648:13
	cmp	r3, #2
.Ltmp91:
	@DEBUG_VALUE: SPIM_HYPER_WAIT_DMMDONE:u32TimeOutCount <- [DW_OP_constu 1, DW_OP_minus, DW_OP_stack_value] undef
	.loc	7 648 13                        @ ../../../../Library/StdDriver/inc\spim_hyper.h:648:13
	str	r7, [sp, #4]
.Ltmp92:
	.loc	7 648 13                        @ ../../../../Library/StdDriver/inc\spim_hyper.h:648:13
	blt	.LBB0_46
.Ltmp93:
@ %bb.42:                               @   in Loop: Header=BB0_38 Depth=1
	@DEBUG_VALUE: SPIM_HYPER_DISABLE_CIPHER:spim <- $r0
	@DEBUG_VALUE: SPIM_HYPER_WAIT_DMMDONE:spim <- $r0
	@DEBUG_VALUE: SPIM_HYPER_Init:u32HyperMode <- [DW_OP_LLVM_entry_value 1] $r1
	@DEBUG_VALUE: SPIM_HYPER_Init:u32Div <- $r2
	@DEBUG_VALUE: SPIM_HYPER_Init:spim <- $r0
	.loc	7 646 12 is_stmt 1              @ ../../../../Library/StdDriver/inc\spim_hyper.h:646:12
	ldr	r3, [r0, #68]
	.loc	7 646 5 is_stmt 0               @ ../../../../Library/StdDriver/inc\spim_hyper.h:646:5
	lsls	r3, r3, #4
	bpl	.LBB0_46
.Ltmp94:
@ %bb.43:                               @   in Loop: Header=BB0_38 Depth=1
	@DEBUG_VALUE: SPIM_HYPER_DISABLE_CIPHER:spim <- $r0
	@DEBUG_VALUE: SPIM_HYPER_WAIT_DMMDONE:spim <- $r0
	@DEBUG_VALUE: SPIM_HYPER_Init:u32HyperMode <- [DW_OP_LLVM_entry_value 1] $r1
	@DEBUG_VALUE: SPIM_HYPER_Init:u32Div <- $r2
	@DEBUG_VALUE: SPIM_HYPER_Init:spim <- $r0
	.loc	7 648 13 is_stmt 1              @ ../../../../Library/StdDriver/inc\spim_hyper.h:648:13
	ldr	r3, [sp, #4]
	subs	r7, r3, #1
.Ltmp95:
	.loc	7 648 13 is_stmt 0              @ ../../../../Library/StdDriver/inc\spim_hyper.h:648:13
	cmp	r3, #2
.Ltmp96:
	@DEBUG_VALUE: SPIM_HYPER_WAIT_DMMDONE:u32TimeOutCount <- [DW_OP_constu 1, DW_OP_minus, DW_OP_stack_value] undef
	.loc	7 648 13                        @ ../../../../Library/StdDriver/inc\spim_hyper.h:648:13
	str	r7, [sp, #4]
.Ltmp97:
	.loc	7 648 13                        @ ../../../../Library/StdDriver/inc\spim_hyper.h:648:13
	blt	.LBB0_46
.Ltmp98:
@ %bb.44:                               @   in Loop: Header=BB0_38 Depth=1
	@DEBUG_VALUE: SPIM_HYPER_DISABLE_CIPHER:spim <- $r0
	@DEBUG_VALUE: SPIM_HYPER_WAIT_DMMDONE:spim <- $r0
	@DEBUG_VALUE: SPIM_HYPER_Init:u32HyperMode <- [DW_OP_LLVM_entry_value 1] $r1
	@DEBUG_VALUE: SPIM_HYPER_Init:u32Div <- $r2
	@DEBUG_VALUE: SPIM_HYPER_Init:spim <- $r0
	.loc	7 646 12 is_stmt 1              @ ../../../../Library/StdDriver/inc\spim_hyper.h:646:12
	ldr	r3, [r0, #68]
	.loc	7 646 5 is_stmt 0               @ ../../../../Library/StdDriver/inc\spim_hyper.h:646:5
	lsls	r3, r3, #4
	bpl	.LBB0_46
.Ltmp99:
@ %bb.45:                               @   in Loop: Header=BB0_38 Depth=1
	@DEBUG_VALUE: SPIM_HYPER_DISABLE_CIPHER:spim <- $r0
	@DEBUG_VALUE: SPIM_HYPER_WAIT_DMMDONE:spim <- $r0
	@DEBUG_VALUE: SPIM_HYPER_Init:u32HyperMode <- [DW_OP_LLVM_entry_value 1] $r1
	@DEBUG_VALUE: SPIM_HYPER_Init:u32Div <- $r2
	@DEBUG_VALUE: SPIM_HYPER_Init:spim <- $r0
	.loc	7 648 13 is_stmt 1              @ ../../../../Library/StdDriver/inc\spim_hyper.h:648:13
	ldr	r3, [sp, #4]
	subs	r3, #1
	str	r3, [sp, #4]
.Ltmp100:
	@DEBUG_VALUE: SPIM_HYPER_WAIT_DMMDONE:u32TimeOutCount <- [DW_OP_plus_uconst 4, DW_OP_deref] $sp
	.loc	7 648 13 is_stmt 0              @ ../../../../Library/StdDriver/inc\spim_hyper.h:648:13
	bgt	.LBB0_38
.Ltmp101:
.LBB0_46:
	@DEBUG_VALUE: SPIM_HYPER_DISABLE_CIPHER:spim <- $r0
	@DEBUG_VALUE: SPIM_HYPER_WAIT_DMMDONE:spim <- $r0
	@DEBUG_VALUE: SPIM_HYPER_Init:u32HyperMode <- [DW_OP_LLVM_entry_value 1] $r1
	@DEBUG_VALUE: SPIM_HYPER_Init:u32Div <- $r2
	@DEBUG_VALUE: SPIM_HYPER_Init:spim <- $r0
	.loc	7 654 21 is_stmt 1              @ ../../../../Library/StdDriver/inc\spim_hyper.h:654:21
	str	r1, [sp, #4]
.Ltmp102:
	@DEBUG_VALUE: SPIM_HYPER_WAIT_DMMDONE:u32TimeOutCount <- [DW_OP_plus_uconst 4, DW_OP_deref] $sp
.LBB0_47:                               @ =>This Inner Loop Header: Depth=1
	@DEBUG_VALUE: SPIM_HYPER_DISABLE_CIPHER:spim <- $r0
	@DEBUG_VALUE: SPIM_HYPER_WAIT_DMMDONE:u32TimeOutCount <- [DW_OP_plus_uconst 4, DW_OP_deref] $sp
	@DEBUG_VALUE: SPIM_HYPER_WAIT_DMMDONE:spim <- $r0
	@DEBUG_VALUE: SPIM_HYPER_Init:u32HyperMode <- [DW_OP_LLVM_entry_value 1] $r1
	@DEBUG_VALUE: SPIM_HYPER_Init:u32Div <- $r2
	@DEBUG_VALUE: SPIM_HYPER_Init:spim <- $r0
	.loc	7 657 12                        @ ../../../../Library/StdDriver/inc\spim_hyper.h:657:12
	ldr	r1, [r0, #68]
	.loc	7 657 5 is_stmt 0               @ ../../../../Library/StdDriver/inc\spim_hyper.h:657:5
	cmp	r1, #0
	bmi	.LBB0_55
.Ltmp103:
@ %bb.48:                               @   in Loop: Header=BB0_47 Depth=1
	@DEBUG_VALUE: SPIM_HYPER_DISABLE_CIPHER:spim <- $r0
	@DEBUG_VALUE: SPIM_HYPER_WAIT_DMMDONE:u32TimeOutCount <- [DW_OP_plus_uconst 4, DW_OP_deref] $sp
	@DEBUG_VALUE: SPIM_HYPER_WAIT_DMMDONE:spim <- $r0
	@DEBUG_VALUE: SPIM_HYPER_Init:u32HyperMode <- [DW_OP_LLVM_entry_value 1] $r1
	@DEBUG_VALUE: SPIM_HYPER_Init:u32Div <- $r2
	@DEBUG_VALUE: SPIM_HYPER_Init:spim <- $r0
	.loc	7 659 13 is_stmt 1              @ ../../../../Library/StdDriver/inc\spim_hyper.h:659:13
	ldr	r1, [sp, #4]
	subs	r3, r1, #1
.Ltmp104:
	.loc	7 659 13 is_stmt 0              @ ../../../../Library/StdDriver/inc\spim_hyper.h:659:13
	cmp	r1, #2
.Ltmp105:
	@DEBUG_VALUE: SPIM_HYPER_WAIT_DMMDONE:u32TimeOutCount <- [DW_OP_constu 1, DW_OP_minus, DW_OP_stack_value] undef
	.loc	7 659 13                        @ ../../../../Library/StdDriver/inc\spim_hyper.h:659:13
	str	r3, [sp, #4]
.Ltmp106:
	.loc	7 659 13                        @ ../../../../Library/StdDriver/inc\spim_hyper.h:659:13
	blt	.LBB0_55
.Ltmp107:
@ %bb.49:                               @   in Loop: Header=BB0_47 Depth=1
	@DEBUG_VALUE: SPIM_HYPER_DISABLE_CIPHER:spim <- $r0
	@DEBUG_VALUE: SPIM_HYPER_WAIT_DMMDONE:spim <- $r0
	@DEBUG_VALUE: SPIM_HYPER_Init:u32HyperMode <- [DW_OP_LLVM_entry_value 1] $r1
	@DEBUG_VALUE: SPIM_HYPER_Init:u32Div <- $r2
	@DEBUG_VALUE: SPIM_HYPER_Init:spim <- $r0
	.loc	7 657 12 is_stmt 1              @ ../../../../Library/StdDriver/inc\spim_hyper.h:657:12
	ldr	r1, [r0, #68]
	.loc	7 657 5 is_stmt 0               @ ../../../../Library/StdDriver/inc\spim_hyper.h:657:5
	cmp	r1, #0
	bmi	.LBB0_55
.Ltmp108:
@ %bb.50:                               @   in Loop: Header=BB0_47 Depth=1
	@DEBUG_VALUE: SPIM_HYPER_DISABLE_CIPHER:spim <- $r0
	@DEBUG_VALUE: SPIM_HYPER_WAIT_DMMDONE:spim <- $r0
	@DEBUG_VALUE: SPIM_HYPER_Init:u32HyperMode <- [DW_OP_LLVM_entry_value 1] $r1
	@DEBUG_VALUE: SPIM_HYPER_Init:u32Div <- $r2
	@DEBUG_VALUE: SPIM_HYPER_Init:spim <- $r0
	.loc	7 659 13 is_stmt 1              @ ../../../../Library/StdDriver/inc\spim_hyper.h:659:13
	ldr	r1, [sp, #4]
	subs	r3, r1, #1
.Ltmp109:
	.loc	7 659 13 is_stmt 0              @ ../../../../Library/StdDriver/inc\spim_hyper.h:659:13
	cmp	r1, #2
.Ltmp110:
	@DEBUG_VALUE: SPIM_HYPER_WAIT_DMMDONE:u32TimeOutCount <- [DW_OP_constu 1, DW_OP_minus, DW_OP_stack_value] undef
	.loc	7 659 13                        @ ../../../../Library/StdDriver/inc\spim_hyper.h:659:13
	str	r3, [sp, #4]
.Ltmp111:
	.loc	7 659 13                        @ ../../../../Library/StdDriver/inc\spim_hyper.h:659:13
	blt	.LBB0_55
.Ltmp112:
@ %bb.51:                               @   in Loop: Header=BB0_47 Depth=1
	@DEBUG_VALUE: SPIM_HYPER_DISABLE_CIPHER:spim <- $r0
	@DEBUG_VALUE: SPIM_HYPER_WAIT_DMMDONE:spim <- $r0
	@DEBUG_VALUE: SPIM_HYPER_Init:u32HyperMode <- [DW_OP_LLVM_entry_value 1] $r1
	@DEBUG_VALUE: SPIM_HYPER_Init:u32Div <- $r2
	@DEBUG_VALUE: SPIM_HYPER_Init:spim <- $r0
	.loc	7 657 12 is_stmt 1              @ ../../../../Library/StdDriver/inc\spim_hyper.h:657:12
	ldr	r1, [r0, #68]
	.loc	7 657 5 is_stmt 0               @ ../../../../Library/StdDriver/inc\spim_hyper.h:657:5
	cmp	r1, #0
	bmi	.LBB0_55
.Ltmp113:
@ %bb.52:                               @   in Loop: Header=BB0_47 Depth=1
	@DEBUG_VALUE: SPIM_HYPER_DISABLE_CIPHER:spim <- $r0
	@DEBUG_VALUE: SPIM_HYPER_WAIT_DMMDONE:spim <- $r0
	@DEBUG_VALUE: SPIM_HYPER_Init:u32HyperMode <- [DW_OP_LLVM_entry_value 1] $r1
	@DEBUG_VALUE: SPIM_HYPER_Init:u32Div <- $r2
	@DEBUG_VALUE: SPIM_HYPER_Init:spim <- $r0
	.loc	7 659 13 is_stmt 1              @ ../../../../Library/StdDriver/inc\spim_hyper.h:659:13
	ldr	r1, [sp, #4]
	subs	r3, r1, #1
.Ltmp114:
	.loc	7 659 13 is_stmt 0              @ ../../../../Library/StdDriver/inc\spim_hyper.h:659:13
	cmp	r1, #2
.Ltmp115:
	@DEBUG_VALUE: SPIM_HYPER_WAIT_DMMDONE:u32TimeOutCount <- [DW_OP_constu 1, DW_OP_minus, DW_OP_stack_value] undef
	.loc	7 659 13                        @ ../../../../Library/StdDriver/inc\spim_hyper.h:659:13
	str	r3, [sp, #4]
.Ltmp116:
	.loc	7 659 13                        @ ../../../../Library/StdDriver/inc\spim_hyper.h:659:13
	blt	.LBB0_55
.Ltmp117:
@ %bb.53:                               @   in Loop: Header=BB0_47 Depth=1
	@DEBUG_VALUE: SPIM_HYPER_DISABLE_CIPHER:spim <- $r0
	@DEBUG_VALUE: SPIM_HYPER_WAIT_DMMDONE:spim <- $r0
	@DEBUG_VALUE: SPIM_HYPER_Init:u32HyperMode <- [DW_OP_LLVM_entry_value 1] $r1
	@DEBUG_VALUE: SPIM_HYPER_Init:u32Div <- $r2
	@DEBUG_VALUE: SPIM_HYPER_Init:spim <- $r0
	.loc	7 657 12 is_stmt 1              @ ../../../../Library/StdDriver/inc\spim_hyper.h:657:12
	ldr	r1, [r0, #68]
	.loc	7 657 5 is_stmt 0               @ ../../../../Library/StdDriver/inc\spim_hyper.h:657:5
	cmp	r1, #0
	bmi	.LBB0_55
.Ltmp118:
@ %bb.54:                               @   in Loop: Header=BB0_47 Depth=1
	@DEBUG_VALUE: SPIM_HYPER_DISABLE_CIPHER:spim <- $r0
	@DEBUG_VALUE: SPIM_HYPER_WAIT_DMMDONE:spim <- $r0
	@DEBUG_VALUE: SPIM_HYPER_Init:u32HyperMode <- [DW_OP_LLVM_entry_value 1] $r1
	@DEBUG_VALUE: SPIM_HYPER_Init:u32Div <- $r2
	@DEBUG_VALUE: SPIM_HYPER_Init:spim <- $r0
	.loc	7 659 13 is_stmt 1              @ ../../../../Library/StdDriver/inc\spim_hyper.h:659:13
	ldr	r1, [sp, #4]
	subs	r1, #1
	str	r1, [sp, #4]
.Ltmp119:
	@DEBUG_VALUE: SPIM_HYPER_WAIT_DMMDONE:u32TimeOutCount <- [DW_OP_plus_uconst 4, DW_OP_deref] $sp
	.loc	7 659 13 is_stmt 0              @ ../../../../Library/StdDriver/inc\spim_hyper.h:659:13
	bgt	.LBB0_47
.Ltmp120:
.LBB0_55:
	@DEBUG_VALUE: SPIM_HYPER_DISABLE_CIPHER:spim <- $r0
	@DEBUG_VALUE: SPIM_HYPER_Init:u32HyperMode <- [DW_OP_LLVM_entry_value 1] $r1
	@DEBUG_VALUE: SPIM_HYPER_Init:u32Div <- $r2
	@DEBUG_VALUE: SPIM_HYPER_Init:spim <- $r0
	.loc	7 677 16 is_stmt 1              @ ../../../../Library/StdDriver/inc\spim_hyper.h:677:16
	ldr	r1, [r0]
.Ltmp121:
	.loc	5 207 5                         @ ../../../../Library/StdDriver/src/spim_hyper.c:207:5
	subs	r3, r2, #3
	lsls	r2, r2, #16
.Ltmp122:
	@DEBUG_VALUE: SPIM_HYPER_Init:u32Div <- [DW_OP_LLVM_entry_value 1] $r2
	.loc	7 677 16                        @ ../../../../Library/StdDriver/inc\spim_hyper.h:677:16
	orr	r1, r1, #1
	str	r1, [r0]
.Ltmp123:
	.loc	5 207 5                         @ ../../../../Library/StdDriver/src/spim_hyper.c:207:5
	ldr	r1, [r0, #4]
	cmn.w	r3, #2
	it	lo
	movlo.w	r2, #65536
	uxth	r1, r1
	add	r1, r2
	str	r1, [r0, #4]
	.loc	5 208 1 epilogue_begin          @ ../../../../Library/StdDriver/src/spim_hyper.c:208:1
	add	sp, #8
	pop.w	{r4, r5, r6, r7, r8, pc}
.Ltmp124:
.Lfunc_end0:
	.size	SPIM_HYPER_Init, .Lfunc_end0-SPIM_HYPER_Init
	.cfi_endproc
	.file	8 "C:\\Users\\austi\\OneDrive\\Desktop\\a\\en-us--M55M1_Series_BSP_CMSIS_V3.01.002\\SampleCode\\MachineLearning\\AIFitnessMirror\\KEIL" "../../../../Library/Device/Nuvoton/M55M1/Include\\spim_reg.h"
	.cantunwind
	.fnend
                                        @ -- End function
	.section	.text.SPIM_HYPER_WaitSPIMENDone,"ax",%progbits
	.hidden	SPIM_HYPER_WaitSPIMENDone       @ -- Begin function SPIM_HYPER_WaitSPIMENDone
	.globl	SPIM_HYPER_WaitSPIMENDone
	.p2align	2
	.type	SPIM_HYPER_WaitSPIMENDone,%function
	.code	16                              @ @SPIM_HYPER_WaitSPIMENDone
	.thumb_func
SPIM_HYPER_WaitSPIMENDone:
.Lfunc_begin1:
	.loc	5 218 0                         @ ../../../../Library/StdDriver/src/spim_hyper.c:218:0
	.fnstart
	.cfi_startproc
@ %bb.0:
	@DEBUG_VALUE: SPIM_HYPER_WaitSPIMENDone:spim <- $r0
	@DEBUG_VALUE: SPIM_HYPER_WaitSPIMENDone:u32IsSync <- $r1
	.pad	#4
	sub	sp, #4
	.cfi_def_cfa_offset 4
.Ltmp125:
	.loc	5 219 40 prologue_end           @ ../../../../Library/StdDriver/src/spim_hyper.c:219:40
	movw	r2, :lower16:SystemCoreClock
	movt	r2, :upper16:SystemCoreClock
	ldr	r2, [r2]
	.loc	5 219 22 is_stmt 0              @ ../../../../Library/StdDriver/src/spim_hyper.c:219:22
	str	r2, [sp]
	.loc	5 222 5 is_stmt 1               @ ../../../../Library/StdDriver/src/spim_hyper.c:222:5
	mov	r2, r0
	ldr	r3, [r2, #4]!
	orr	r3, r3, #1
	str	r3, [r2]
	.loc	5 224 9                         @ ../../../../Library/StdDriver/src/spim_hyper.c:224:9
	cbz	r1, .LBB1_4
.Ltmp126:
@ %bb.1:
	@DEBUG_VALUE: SPIM_HYPER_WaitSPIMENDone:u32IsSync <- $r1
	@DEBUG_VALUE: SPIM_HYPER_WaitSPIMENDone:spim <- $r0
	.loc	5 0 9 is_stmt 0                 @ ../../../../Library/StdDriver/src/spim_hyper.c:0:9
	adds	r0, #152
.Ltmp127:
	@DEBUG_VALUE: SPIM_HYPER_WaitSPIMENDone:spim <- [DW_OP_LLVM_entry_value 1] $r0
	.p2align	2
.LBB1_2:                                @ =>This Inner Loop Header: Depth=1
	@DEBUG_VALUE: SPIM_HYPER_WaitSPIMENDone:spim <- [DW_OP_LLVM_entry_value 1] $r0
	.loc	5 226 17 is_stmt 1              @ ../../../../Library/StdDriver/src/spim_hyper.c:226:17
	ldr	r1, [r0]
.Ltmp128:
	@DEBUG_VALUE: SPIM_HYPER_WaitSPIMENDone:u32IsSync <- [DW_OP_LLVM_entry_value 1] $r1
	lsls	r1, r1, #31
	csel	r1, r2, r0, eq
	.loc	5 226 0 is_stmt 0               @ ../../../../Library/StdDriver/src/spim_hyper.c:226:0
	ldr	r1, [r1]
	.loc	5 226 9                         @ ../../../../Library/StdDriver/src/spim_hyper.c:226:9
	lsls	r1, r1, #31
	beq	.LBB1_4
.Ltmp129:
@ %bb.3:                                @   in Loop: Header=BB1_2 Depth=1
	@DEBUG_VALUE: SPIM_HYPER_WaitSPIMENDone:spim <- [DW_OP_LLVM_entry_value 1] $r0
	.loc	5 228 17 is_stmt 1              @ ../../../../Library/StdDriver/src/spim_hyper.c:228:17
	ldr	r1, [sp]
	subs	r1, #1
	str	r1, [sp]
	ittt	le
	mvnle	r0, #1
.Ltmp130:
	.loc	5 236 1 epilogue_begin          @ ../../../../Library/StdDriver/src/spim_hyper.c:236:1
	addle	sp, #4
	bxle	lr
	b	.LBB1_2
.Ltmp131:
.LBB1_4:
	.loc	5 0 1 is_stmt 0                 @ ../../../../Library/StdDriver/src/spim_hyper.c:0:1
	movs	r0, #0
	.loc	5 236 1 epilogue_begin          @ ../../../../Library/StdDriver/src/spim_hyper.c:236:1
	add	sp, #4
	bx	lr
.Ltmp132:
.Lfunc_end1:
	.size	SPIM_HYPER_WaitSPIMENDone, .Lfunc_end1-SPIM_HYPER_WaitSPIMENDone
	.cfi_endproc
	.cantunwind
	.fnend
                                        @ -- End function
	.section	.text.SPIM_HYPER_Reset,"ax",%progbits
	.hidden	SPIM_HYPER_Reset                @ -- Begin function SPIM_HYPER_Reset
	.globl	SPIM_HYPER_Reset
	.p2align	2
	.type	SPIM_HYPER_Reset,%function
	.code	16                              @ @SPIM_HYPER_Reset
	.thumb_func
SPIM_HYPER_Reset:
.Lfunc_begin2:
	.loc	5 246 0 is_stmt 1               @ ../../../../Library/StdDriver/src/spim_hyper.c:246:0
	.fnstart
	.cfi_startproc
@ %bb.0:
	@DEBUG_VALUE: SPIM_HYPER_Reset:spim <- $r0
	.pad	#8
	sub	sp, #8
	.cfi_def_cfa_offset 8
.Ltmp133:
	@DEBUG_VALUE: SPIM_HYPER_Reset:u32Delay <- [DW_OP_deref] $sp
	movs	r1, #0
.Ltmp134:
	.loc	5 247 23 prologue_end           @ ../../../../Library/StdDriver/src/spim_hyper.c:247:23
	str	r1, [sp]
	movs	r1, #1
.Ltmp135:
	@DEBUG_VALUE: SPIM_HYPER_Reset:i32Ret <- -1
	.loc	5 250 21                        @ ../../../../Library/StdDriver/src/spim_hyper.c:250:21
	str.w	r1, [r0, #128]
.Ltmp136:
	@DEBUG_VALUE: spim_hyper_wait_cmdidle:spim <- $r0
	@DEBUG_VALUE: spim_hyper_wait_cmdidle:i32TimeOutCnt <- [DW_OP_plus_uconst 4, DW_OP_deref] $sp
	.loc	5 113 38                        @ ../../../../Library/StdDriver/src/spim_hyper.c:113:38
	movw	r1, :lower16:SystemCoreClock
	movt	r1, :upper16:SystemCoreClock
	ldr	r1, [r1]
	.loc	5 113 22 is_stmt 0              @ ../../../../Library/StdDriver/src/spim_hyper.c:113:22
	str	r1, [sp, #4]
.Ltmp137:
.LBB2_1:                                @ =>This Inner Loop Header: Depth=1
	@DEBUG_VALUE: spim_hyper_wait_cmdidle:i32TimeOutCnt <- [DW_OP_plus_uconst 4, DW_OP_deref] $sp
	@DEBUG_VALUE: spim_hyper_wait_cmdidle:spim <- $r0
	@DEBUG_VALUE: SPIM_HYPER_Reset:i32Ret <- -1
	@DEBUG_VALUE: SPIM_HYPER_Reset:u32Delay <- [DW_OP_deref] $sp
	@DEBUG_VALUE: SPIM_HYPER_Reset:spim <- $r0
	.loc	5 115 18 is_stmt 1              @ ../../../../Library/StdDriver/src/spim_hyper.c:115:18
	ldr.w	r1, [r0, #128]
	.loc	5 115 5 is_stmt 0               @ ../../../../Library/StdDriver/src/spim_hyper.c:115:5
	cmp	r1, #0
	mov.w	r1, #0
	beq	.LBB2_10
.Ltmp138:
@ %bb.2:                                @   in Loop: Header=BB2_1 Depth=1
	@DEBUG_VALUE: spim_hyper_wait_cmdidle:i32TimeOutCnt <- [DW_OP_plus_uconst 4, DW_OP_deref] $sp
	@DEBUG_VALUE: spim_hyper_wait_cmdidle:spim <- $r0
	@DEBUG_VALUE: SPIM_HYPER_Reset:i32Ret <- -1
	@DEBUG_VALUE: SPIM_HYPER_Reset:u32Delay <- [DW_OP_deref] $sp
	@DEBUG_VALUE: SPIM_HYPER_Reset:spim <- $r0
	.loc	5 117 13 is_stmt 1              @ ../../../../Library/StdDriver/src/spim_hyper.c:117:13
	ldr	r2, [sp, #4]
	subs	r3, r2, #1
.Ltmp139:
	.loc	5 117 13 is_stmt 0              @ ../../../../Library/StdDriver/src/spim_hyper.c:117:13
	cmp	r2, #2
.Ltmp140:
	@DEBUG_VALUE: spim_hyper_wait_cmdidle:i32TimeOutCnt <- [DW_OP_constu 1, DW_OP_minus, DW_OP_stack_value] undef
	.loc	5 117 13                        @ ../../../../Library/StdDriver/src/spim_hyper.c:117:13
	str	r3, [sp, #4]
.Ltmp141:
	.loc	5 117 13                        @ ../../../../Library/StdDriver/src/spim_hyper.c:117:13
	blt	.LBB2_9
.Ltmp142:
@ %bb.3:                                @   in Loop: Header=BB2_1 Depth=1
	@DEBUG_VALUE: spim_hyper_wait_cmdidle:spim <- $r0
	@DEBUG_VALUE: SPIM_HYPER_Reset:i32Ret <- -1
	@DEBUG_VALUE: SPIM_HYPER_Reset:u32Delay <- [DW_OP_deref] $sp
	@DEBUG_VALUE: SPIM_HYPER_Reset:spim <- $r0
	.loc	5 115 18 is_stmt 1              @ ../../../../Library/StdDriver/src/spim_hyper.c:115:18
	ldr.w	r2, [r0, #128]
	.loc	5 115 5 is_stmt 0               @ ../../../../Library/StdDriver/src/spim_hyper.c:115:5
	cbz	r2, .LBB2_10
.Ltmp143:
@ %bb.4:                                @   in Loop: Header=BB2_1 Depth=1
	@DEBUG_VALUE: spim_hyper_wait_cmdidle:spim <- $r0
	@DEBUG_VALUE: SPIM_HYPER_Reset:i32Ret <- -1
	@DEBUG_VALUE: SPIM_HYPER_Reset:u32Delay <- [DW_OP_deref] $sp
	@DEBUG_VALUE: SPIM_HYPER_Reset:spim <- $r0
	.loc	5 117 13 is_stmt 1              @ ../../../../Library/StdDriver/src/spim_hyper.c:117:13
	ldr	r2, [sp, #4]
	subs	r3, r2, #1
.Ltmp144:
	.loc	5 117 13 is_stmt 0              @ ../../../../Library/StdDriver/src/spim_hyper.c:117:13
	cmp	r2, #2
.Ltmp145:
	@DEBUG_VALUE: spim_hyper_wait_cmdidle:i32TimeOutCnt <- [DW_OP_constu 1, DW_OP_minus, DW_OP_stack_value] undef
	.loc	5 117 13                        @ ../../../../Library/StdDriver/src/spim_hyper.c:117:13
	str	r3, [sp, #4]
.Ltmp146:
	.loc	5 117 13                        @ ../../../../Library/StdDriver/src/spim_hyper.c:117:13
	blt	.LBB2_9
.Ltmp147:
@ %bb.5:                                @   in Loop: Header=BB2_1 Depth=1
	@DEBUG_VALUE: spim_hyper_wait_cmdidle:spim <- $r0
	@DEBUG_VALUE: SPIM_HYPER_Reset:i32Ret <- -1
	@DEBUG_VALUE: SPIM_HYPER_Reset:u32Delay <- [DW_OP_deref] $sp
	@DEBUG_VALUE: SPIM_HYPER_Reset:spim <- $r0
	.loc	5 115 18 is_stmt 1              @ ../../../../Library/StdDriver/src/spim_hyper.c:115:18
	ldr.w	r2, [r0, #128]
	.loc	5 115 5 is_stmt 0               @ ../../../../Library/StdDriver/src/spim_hyper.c:115:5
	cbz	r2, .LBB2_10
.Ltmp148:
@ %bb.6:                                @   in Loop: Header=BB2_1 Depth=1
	@DEBUG_VALUE: spim_hyper_wait_cmdidle:spim <- $r0
	@DEBUG_VALUE: SPIM_HYPER_Reset:i32Ret <- -1
	@DEBUG_VALUE: SPIM_HYPER_Reset:u32Delay <- [DW_OP_deref] $sp
	@DEBUG_VALUE: SPIM_HYPER_Reset:spim <- $r0
	.loc	5 117 13 is_stmt 1              @ ../../../../Library/StdDriver/src/spim_hyper.c:117:13
	ldr	r2, [sp, #4]
	subs	r3, r2, #1
.Ltmp149:
	.loc	5 117 13 is_stmt 0              @ ../../../../Library/StdDriver/src/spim_hyper.c:117:13
	cmp	r2, #2
.Ltmp150:
	@DEBUG_VALUE: spim_hyper_wait_cmdidle:i32TimeOutCnt <- [DW_OP_constu 1, DW_OP_minus, DW_OP_stack_value] undef
	.loc	5 117 13                        @ ../../../../Library/StdDriver/src/spim_hyper.c:117:13
	str	r3, [sp, #4]
.Ltmp151:
	.loc	5 117 13                        @ ../../../../Library/StdDriver/src/spim_hyper.c:117:13
	blt	.LBB2_9
.Ltmp152:
@ %bb.7:                                @   in Loop: Header=BB2_1 Depth=1
	@DEBUG_VALUE: spim_hyper_wait_cmdidle:spim <- $r0
	@DEBUG_VALUE: SPIM_HYPER_Reset:i32Ret <- -1
	@DEBUG_VALUE: SPIM_HYPER_Reset:u32Delay <- [DW_OP_deref] $sp
	@DEBUG_VALUE: SPIM_HYPER_Reset:spim <- $r0
	.loc	5 115 18 is_stmt 1              @ ../../../../Library/StdDriver/src/spim_hyper.c:115:18
	ldr.w	r2, [r0, #128]
	.loc	5 115 5 is_stmt 0               @ ../../../../Library/StdDriver/src/spim_hyper.c:115:5
	cbz	r2, .LBB2_10
.Ltmp153:
@ %bb.8:                                @   in Loop: Header=BB2_1 Depth=1
	@DEBUG_VALUE: spim_hyper_wait_cmdidle:spim <- $r0
	@DEBUG_VALUE: SPIM_HYPER_Reset:i32Ret <- -1
	@DEBUG_VALUE: SPIM_HYPER_Reset:u32Delay <- [DW_OP_deref] $sp
	@DEBUG_VALUE: SPIM_HYPER_Reset:spim <- $r0
	.loc	5 117 13 is_stmt 1              @ ../../../../Library/StdDriver/src/spim_hyper.c:117:13
	ldr	r2, [sp, #4]
	subs	r2, #1
	str	r2, [sp, #4]
.Ltmp154:
	@DEBUG_VALUE: spim_hyper_wait_cmdidle:i32TimeOutCnt <- [DW_OP_plus_uconst 4, DW_OP_deref] $sp
	.loc	5 117 13 is_stmt 0              @ ../../../../Library/StdDriver/src/spim_hyper.c:117:13
	bgt	.LBB2_1
.Ltmp155:
.LBB2_9:
	@DEBUG_VALUE: spim_hyper_wait_cmdidle:spim <- $r0
	@DEBUG_VALUE: SPIM_HYPER_Reset:i32Ret <- -1
	@DEBUG_VALUE: SPIM_HYPER_Reset:u32Delay <- [DW_OP_deref] $sp
	@DEBUG_VALUE: SPIM_HYPER_Reset:spim <- $r0
	.loc	5 0 13                          @ ../../../../Library/StdDriver/src/spim_hyper.c:0:13
	mvn	r0, #1
.Ltmp156:
	@DEBUG_VALUE: SPIM_HYPER_Reset:spim <- [DW_OP_LLVM_entry_value 1] $r0
	b	.LBB2_11
.Ltmp157:
.LBB2_10:
	@DEBUG_VALUE: spim_hyper_wait_cmdidle:spim <- $r0
	@DEBUG_VALUE: SPIM_HYPER_Reset:i32Ret <- -1
	@DEBUG_VALUE: SPIM_HYPER_Reset:u32Delay <- [DW_OP_deref] $sp
	@DEBUG_VALUE: SPIM_HYPER_Reset:spim <- $r0
	movs	r0, #0
.Ltmp158:
	@DEBUG_VALUE: SPIM_HYPER_Reset:spim <- [DW_OP_LLVM_entry_value 1] $r0
.LBB2_11:
	@DEBUG_VALUE: SPIM_HYPER_Reset:spim <- [DW_OP_LLVM_entry_value 1] $r0
	@DEBUG_VALUE: SPIM_HYPER_Reset:i32Ret <- -1
	@DEBUG_VALUE: SPIM_HYPER_Reset:u32Delay <- [DW_OP_deref] $sp
	@DEBUG_VALUE: SPIM_HYPER_Reset:i32Ret <- $r0
	.loc	5 255 19 is_stmt 1              @ ../../../../Library/StdDriver/src/spim_hyper.c:255:19
	str	r1, [sp]
	@DEBUG_VALUE: SPIM_HYPER_Reset:u32Delay <- [DW_OP_deref] $sp
.Ltmp159:
	.loc	5 255 24 is_stmt 0              @ ../../../../Library/StdDriver/src/spim_hyper.c:255:24
	ldr	r1, [sp]
.Ltmp160:
	.loc	5 255 5                         @ ../../../../Library/StdDriver/src/spim_hyper.c:255:5
	lsrs	r1, r1, #12
	cmp	r1, #2
	bhi	.LBB2_16
.Ltmp161:
	.loc	5 0 5                           @ :0:5
.Ltmp162:
	.p2align	2
.LBB2_12:                               @ =>This Inner Loop Header: Depth=1
	@DEBUG_VALUE: SPIM_HYPER_Reset:i32Ret <- $r0
	@DEBUG_VALUE: SPIM_HYPER_Reset:spim <- [DW_OP_LLVM_entry_value 1] $r0
	@DEBUG_VALUE: SPIM_HYPER_Reset:u32Delay <- [DW_OP_deref] $sp
	.loc	5 255 51                        @ ../../../../Library/StdDriver/src/spim_hyper.c:255:51
	ldr	r1, [sp]
	adds	r1, #1
	str	r1, [sp]
	.loc	5 255 24                        @ ../../../../Library/StdDriver/src/spim_hyper.c:255:24
	ldr	r1, [sp]
.Ltmp163:
	.loc	5 255 5                         @ ../../../../Library/StdDriver/src/spim_hyper.c:255:5
	lsrs	r1, r1, #12
	cmp	r1, #2
.Ltmp164:
	@DEBUG_VALUE: SPIM_HYPER_Reset:u32Delay <- [DW_OP_plus_uconst 1, DW_OP_stack_value] undef
	bhi	.LBB2_16
.Ltmp165:
@ %bb.13:                               @   in Loop: Header=BB2_12 Depth=1
	@DEBUG_VALUE: SPIM_HYPER_Reset:i32Ret <- $r0
	@DEBUG_VALUE: SPIM_HYPER_Reset:spim <- [DW_OP_LLVM_entry_value 1] $r0
	.loc	5 255 51                        @ ../../../../Library/StdDriver/src/spim_hyper.c:255:51
	ldr	r1, [sp]
	adds	r1, #1
	str	r1, [sp]
	.loc	5 255 24                        @ ../../../../Library/StdDriver/src/spim_hyper.c:255:24
	ldr	r1, [sp]
.Ltmp166:
	.loc	5 255 5                         @ ../../../../Library/StdDriver/src/spim_hyper.c:255:5
	lsrs	r1, r1, #12
	cmp	r1, #2
.Ltmp167:
	@DEBUG_VALUE: SPIM_HYPER_Reset:u32Delay <- [DW_OP_plus_uconst 1, DW_OP_stack_value] undef
	bhi	.LBB2_16
.Ltmp168:
@ %bb.14:                               @   in Loop: Header=BB2_12 Depth=1
	@DEBUG_VALUE: SPIM_HYPER_Reset:i32Ret <- $r0
	@DEBUG_VALUE: SPIM_HYPER_Reset:spim <- [DW_OP_LLVM_entry_value 1] $r0
	.loc	5 255 51                        @ ../../../../Library/StdDriver/src/spim_hyper.c:255:51
	ldr	r1, [sp]
	adds	r1, #1
	str	r1, [sp]
	.loc	5 255 24                        @ ../../../../Library/StdDriver/src/spim_hyper.c:255:24
	ldr	r1, [sp]
.Ltmp169:
	.loc	5 255 5                         @ ../../../../Library/StdDriver/src/spim_hyper.c:255:5
	lsrs	r1, r1, #12
	cmp	r1, #2
.Ltmp170:
	@DEBUG_VALUE: SPIM_HYPER_Reset:u32Delay <- [DW_OP_plus_uconst 1, DW_OP_stack_value] undef
	bhi	.LBB2_16
.Ltmp171:
@ %bb.15:                               @   in Loop: Header=BB2_12 Depth=1
	@DEBUG_VALUE: SPIM_HYPER_Reset:i32Ret <- $r0
	@DEBUG_VALUE: SPIM_HYPER_Reset:spim <- [DW_OP_LLVM_entry_value 1] $r0
	.loc	5 255 51                        @ ../../../../Library/StdDriver/src/spim_hyper.c:255:51
	ldr	r1, [sp]
	adds	r1, #1
	str	r1, [sp]
.Ltmp172:
	@DEBUG_VALUE: SPIM_HYPER_Reset:u32Delay <- [DW_OP_deref] $sp
	.loc	5 255 24                        @ ../../../../Library/StdDriver/src/spim_hyper.c:255:24
	ldr	r1, [sp]
.Ltmp173:
	.loc	5 255 5                         @ ../../../../Library/StdDriver/src/spim_hyper.c:255:5
	cmp.w	r1, #12288
	blo	.LBB2_12
.Ltmp174:
.LBB2_16:
	@DEBUG_VALUE: SPIM_HYPER_Reset:i32Ret <- $r0
	@DEBUG_VALUE: SPIM_HYPER_Reset:spim <- [DW_OP_LLVM_entry_value 1] $r0
	.loc	5 257 5 epilogue_begin is_stmt 1 @ ../../../../Library/StdDriver/src/spim_hyper.c:257:5
	add	sp, #8
	bx	lr
.Ltmp175:
.Lfunc_end2:
	.size	SPIM_HYPER_Reset, .Lfunc_end2-SPIM_HYPER_Reset
	.cfi_endproc
	.cantunwind
	.fnend
                                        @ -- End function
	.section	.text.SPIM_HYPER_ExitHSAndDPD,"ax",%progbits
	.hidden	SPIM_HYPER_ExitHSAndDPD         @ -- Begin function SPIM_HYPER_ExitHSAndDPD
	.globl	SPIM_HYPER_ExitHSAndDPD
	.p2align	2
	.type	SPIM_HYPER_ExitHSAndDPD,%function
	.code	16                              @ @SPIM_HYPER_ExitHSAndDPD
	.thumb_func
SPIM_HYPER_ExitHSAndDPD:
.Lfunc_begin3:
	.loc	5 268 0                         @ ../../../../Library/StdDriver/src/spim_hyper.c:268:0
	.fnstart
	.cfi_startproc
@ %bb.0:
	@DEBUG_VALUE: SPIM_HYPER_ExitHSAndDPD:spim <- $r0
	.pad	#4
	sub	sp, #4
	.cfi_def_cfa_offset 4
	movs	r1, #5
.Ltmp176:
	.loc	5 269 21 prologue_end           @ ../../../../Library/StdDriver/src/spim_hyper.c:269:21
	str.w	r1, [r0, #128]
.Ltmp177:
	@DEBUG_VALUE: spim_hyper_wait_cmdidle:spim <- $r0
	@DEBUG_VALUE: spim_hyper_wait_cmdidle:i32TimeOutCnt <- [DW_OP_deref] $sp
	.loc	5 113 38                        @ ../../../../Library/StdDriver/src/spim_hyper.c:113:38
	movw	r1, :lower16:SystemCoreClock
	movt	r1, :upper16:SystemCoreClock
	ldr	r1, [r1]
	.loc	5 113 22 is_stmt 0              @ ../../../../Library/StdDriver/src/spim_hyper.c:113:22
	str	r1, [sp]
.Ltmp178:
.LBB3_1:                                @ =>This Inner Loop Header: Depth=1
	@DEBUG_VALUE: spim_hyper_wait_cmdidle:i32TimeOutCnt <- [DW_OP_deref] $sp
	@DEBUG_VALUE: spim_hyper_wait_cmdidle:spim <- $r0
	@DEBUG_VALUE: SPIM_HYPER_ExitHSAndDPD:spim <- $r0
	.loc	5 115 18 is_stmt 1              @ ../../../../Library/StdDriver/src/spim_hyper.c:115:18
	ldr.w	r1, [r0, #128]
	.loc	5 115 5 is_stmt 0               @ ../../../../Library/StdDriver/src/spim_hyper.c:115:5
	cbz	r1, .LBB3_10
.Ltmp179:
@ %bb.2:                                @   in Loop: Header=BB3_1 Depth=1
	@DEBUG_VALUE: spim_hyper_wait_cmdidle:i32TimeOutCnt <- [DW_OP_deref] $sp
	@DEBUG_VALUE: spim_hyper_wait_cmdidle:spim <- $r0
	@DEBUG_VALUE: SPIM_HYPER_ExitHSAndDPD:spim <- $r0
	.loc	5 117 13 is_stmt 1              @ ../../../../Library/StdDriver/src/spim_hyper.c:117:13
	ldr	r1, [sp]
	subs	r2, r1, #1
.Ltmp180:
	.loc	5 117 13 is_stmt 0              @ ../../../../Library/StdDriver/src/spim_hyper.c:117:13
	cmp	r1, #2
.Ltmp181:
	@DEBUG_VALUE: spim_hyper_wait_cmdidle:i32TimeOutCnt <- [DW_OP_constu 1, DW_OP_minus, DW_OP_stack_value] undef
	.loc	5 117 13                        @ ../../../../Library/StdDriver/src/spim_hyper.c:117:13
	str	r2, [sp]
.Ltmp182:
	.loc	5 117 13                        @ ../../../../Library/StdDriver/src/spim_hyper.c:117:13
	blt	.LBB3_9
.Ltmp183:
@ %bb.3:                                @   in Loop: Header=BB3_1 Depth=1
	@DEBUG_VALUE: spim_hyper_wait_cmdidle:spim <- $r0
	@DEBUG_VALUE: SPIM_HYPER_ExitHSAndDPD:spim <- $r0
	.loc	5 115 18 is_stmt 1              @ ../../../../Library/StdDriver/src/spim_hyper.c:115:18
	ldr.w	r1, [r0, #128]
	.loc	5 115 5 is_stmt 0               @ ../../../../Library/StdDriver/src/spim_hyper.c:115:5
	cbz	r1, .LBB3_10
.Ltmp184:
@ %bb.4:                                @   in Loop: Header=BB3_1 Depth=1
	@DEBUG_VALUE: spim_hyper_wait_cmdidle:spim <- $r0
	@DEBUG_VALUE: SPIM_HYPER_ExitHSAndDPD:spim <- $r0
	.loc	5 117 13 is_stmt 1              @ ../../../../Library/StdDriver/src/spim_hyper.c:117:13
	ldr	r1, [sp]
	subs	r2, r1, #1
.Ltmp185:
	.loc	5 117 13 is_stmt 0              @ ../../../../Library/StdDriver/src/spim_hyper.c:117:13
	cmp	r1, #2
.Ltmp186:
	@DEBUG_VALUE: spim_hyper_wait_cmdidle:i32TimeOutCnt <- [DW_OP_constu 1, DW_OP_minus, DW_OP_stack_value] undef
	.loc	5 117 13                        @ ../../../../Library/StdDriver/src/spim_hyper.c:117:13
	str	r2, [sp]
.Ltmp187:
	.loc	5 117 13                        @ ../../../../Library/StdDriver/src/spim_hyper.c:117:13
	blt	.LBB3_9
.Ltmp188:
@ %bb.5:                                @   in Loop: Header=BB3_1 Depth=1
	@DEBUG_VALUE: spim_hyper_wait_cmdidle:spim <- $r0
	@DEBUG_VALUE: SPIM_HYPER_ExitHSAndDPD:spim <- $r0
	.loc	5 115 18 is_stmt 1              @ ../../../../Library/StdDriver/src/spim_hyper.c:115:18
	ldr.w	r1, [r0, #128]
	.loc	5 115 5 is_stmt 0               @ ../../../../Library/StdDriver/src/spim_hyper.c:115:5
	cbz	r1, .LBB3_10
.Ltmp189:
@ %bb.6:                                @   in Loop: Header=BB3_1 Depth=1
	@DEBUG_VALUE: spim_hyper_wait_cmdidle:spim <- $r0
	@DEBUG_VALUE: SPIM_HYPER_ExitHSAndDPD:spim <- $r0
	.loc	5 117 13 is_stmt 1              @ ../../../../Library/StdDriver/src/spim_hyper.c:117:13
	ldr	r1, [sp]
	subs	r2, r1, #1
.Ltmp190:
	.loc	5 117 13 is_stmt 0              @ ../../../../Library/StdDriver/src/spim_hyper.c:117:13
	cmp	r1, #2
.Ltmp191:
	@DEBUG_VALUE: spim_hyper_wait_cmdidle:i32TimeOutCnt <- [DW_OP_constu 1, DW_OP_minus, DW_OP_stack_value] undef
	.loc	5 117 13                        @ ../../../../Library/StdDriver/src/spim_hyper.c:117:13
	str	r2, [sp]
.Ltmp192:
	.loc	5 117 13                        @ ../../../../Library/StdDriver/src/spim_hyper.c:117:13
	blt	.LBB3_9
.Ltmp193:
@ %bb.7:                                @   in Loop: Header=BB3_1 Depth=1
	@DEBUG_VALUE: spim_hyper_wait_cmdidle:spim <- $r0
	@DEBUG_VALUE: SPIM_HYPER_ExitHSAndDPD:spim <- $r0
	.loc	5 115 18 is_stmt 1              @ ../../../../Library/StdDriver/src/spim_hyper.c:115:18
	ldr.w	r1, [r0, #128]
	.loc	5 115 5 is_stmt 0               @ ../../../../Library/StdDriver/src/spim_hyper.c:115:5
	cbz	r1, .LBB3_10
.Ltmp194:
@ %bb.8:                                @   in Loop: Header=BB3_1 Depth=1
	@DEBUG_VALUE: spim_hyper_wait_cmdidle:spim <- $r0
	@DEBUG_VALUE: SPIM_HYPER_ExitHSAndDPD:spim <- $r0
	.loc	5 117 13 is_stmt 1              @ ../../../../Library/StdDriver/src/spim_hyper.c:117:13
	ldr	r1, [sp]
	subs	r1, #1
	str	r1, [sp]
.Ltmp195:
	@DEBUG_VALUE: spim_hyper_wait_cmdidle:i32TimeOutCnt <- [DW_OP_deref] $sp
	.loc	5 117 13 is_stmt 0              @ ../../../../Library/StdDriver/src/spim_hyper.c:117:13
	bgt	.LBB3_1
.Ltmp196:
.LBB3_9:
	@DEBUG_VALUE: SPIM_HYPER_ExitHSAndDPD:spim <- $r0
	.loc	5 0 13                          @ ../../../../Library/StdDriver/src/spim_hyper.c:0:13
	mvn	r0, #1
.Ltmp197:
	@DEBUG_VALUE: SPIM_HYPER_ExitHSAndDPD:spim <- [DW_OP_LLVM_entry_value 1] $r0
	.loc	5 271 5 epilogue_begin is_stmt 1 @ ../../../../Library/StdDriver/src/spim_hyper.c:271:5
	add	sp, #4
	bx	lr
.Ltmp198:
.LBB3_10:
	@DEBUG_VALUE: SPIM_HYPER_ExitHSAndDPD:spim <- $r0
	.loc	5 0 5 is_stmt 0                 @ ../../../../Library/StdDriver/src/spim_hyper.c:0:5
	movs	r0, #0
.Ltmp199:
	@DEBUG_VALUE: SPIM_HYPER_ExitHSAndDPD:spim <- [DW_OP_LLVM_entry_value 1] $r0
	.loc	5 271 5 epilogue_begin          @ ../../../../Library/StdDriver/src/spim_hyper.c:271:5
	add	sp, #4
	bx	lr
.Ltmp200:
.Lfunc_end3:
	.size	SPIM_HYPER_ExitHSAndDPD, .Lfunc_end3-SPIM_HYPER_ExitHSAndDPD
	.cfi_endproc
	.cantunwind
	.fnend
                                        @ -- End function
	.section	.text.SPIM_HYPER_ReadHyperRAMReg,"ax",%progbits
	.hidden	SPIM_HYPER_ReadHyperRAMReg      @ -- Begin function SPIM_HYPER_ReadHyperRAMReg
	.globl	SPIM_HYPER_ReadHyperRAMReg
	.p2align	2
	.type	SPIM_HYPER_ReadHyperRAMReg,%function
	.code	16                              @ @SPIM_HYPER_ReadHyperRAMReg
	.thumb_func
SPIM_HYPER_ReadHyperRAMReg:
.Lfunc_begin4:
	.fnstart
	.cfi_startproc
@ %bb.0:
	@DEBUG_VALUE: SPIM_HYPER_ReadHyperRAMReg:spim <- $r0
	@DEBUG_VALUE: SPIM_HYPER_ReadHyperRAMReg:u32Addr <- $r1
	.loc	5 289 46 prologue_end is_stmt 1 @ ../../../../Library/StdDriver/src/spim_hyper.c:289:46
	cmp.w	r1, #4096
	mov.w	r2, #-1
	bge	.LBB4_4
.Ltmp201:
@ %bb.1:
	@DEBUG_VALUE: SPIM_HYPER_ReadHyperRAMReg:u32Addr <- $r1
	@DEBUG_VALUE: SPIM_HYPER_ReadHyperRAMReg:spim <- $r0
	cbz	r1, .LBB4_5
.Ltmp202:
@ %bb.2:
	@DEBUG_VALUE: SPIM_HYPER_ReadHyperRAMReg:u32Addr <- $r1
	@DEBUG_VALUE: SPIM_HYPER_ReadHyperRAMReg:spim <- $r0
	cmp	r1, #2
	beq	.LBB4_5
.Ltmp203:
.LBB4_3:
	@DEBUG_VALUE: SPIM_HYPER_ReadHyperRAMReg:u32Addr <- $r1
	@DEBUG_VALUE: SPIM_HYPER_ReadHyperRAMReg:spim <- $r0
	.loc	5 304 1                         @ ../../../../Library/StdDriver/src/spim_hyper.c:304:1
	mov	r0, r2
.Ltmp204:
	@DEBUG_VALUE: SPIM_HYPER_ReadHyperRAMReg:spim <- [DW_OP_LLVM_entry_value 1] $r0
	bx	lr
.Ltmp205:
.LBB4_4:
	@DEBUG_VALUE: SPIM_HYPER_ReadHyperRAMReg:u32Addr <- $r1
	@DEBUG_VALUE: SPIM_HYPER_ReadHyperRAMReg:spim <- $r0
	.loc	5 0 1 is_stmt 0                 @ ../../../../Library/StdDriver/src/spim_hyper.c:0:1
	movw	r3, #4098
.Ltmp206:
	.loc	5 289 46 is_stmt 1              @ ../../../../Library/StdDriver/src/spim_hyper.c:289:46
	cmp	r1, r3
	it	ne
	cmpne.w	r1, #4096
	bne	.LBB4_3
.Ltmp207:
.LBB4_5:
	@DEBUG_VALUE: SPIM_HYPER_ReadHyperRAMReg:u32Addr <- $r1
	@DEBUG_VALUE: SPIM_HYPER_ReadHyperRAMReg:spim <- $r0
	.pad	#4
	sub	sp, #4
	.cfi_def_cfa_offset 4
	.loc	5 297 21                        @ ../../../../Library/StdDriver/src/spim_hyper.c:297:21
	str.w	r1, [r0, #140]
	movs	r1, #2
.Ltmp208:
	@DEBUG_VALUE: SPIM_HYPER_ReadHyperRAMReg:u32Addr <- [DW_OP_LLVM_entry_value 1] $r1
	.loc	5 299 21                        @ ../../../../Library/StdDriver/src/spim_hyper.c:299:21
	str.w	r1, [r0, #128]
.Ltmp209:
	@DEBUG_VALUE: spim_hyper_wait_cmdidle:spim <- $r0
	@DEBUG_VALUE: spim_hyper_wait_cmdidle:i32TimeOutCnt <- [DW_OP_deref] $sp
	.loc	5 113 38                        @ ../../../../Library/StdDriver/src/spim_hyper.c:113:38
	movw	r1, :lower16:SystemCoreClock
	movt	r1, :upper16:SystemCoreClock
	ldr	r1, [r1]
	.loc	5 113 22 is_stmt 0              @ ../../../../Library/StdDriver/src/spim_hyper.c:113:22
	str	r1, [sp]
.Ltmp210:
.LBB4_6:                                @ =>This Inner Loop Header: Depth=1
	@DEBUG_VALUE: spim_hyper_wait_cmdidle:i32TimeOutCnt <- [DW_OP_deref] $sp
	@DEBUG_VALUE: spim_hyper_wait_cmdidle:spim <- $r0
	@DEBUG_VALUE: SPIM_HYPER_ReadHyperRAMReg:u32Addr <- [DW_OP_LLVM_entry_value 1] $r1
	@DEBUG_VALUE: SPIM_HYPER_ReadHyperRAMReg:spim <- $r0
	.loc	5 115 18 is_stmt 1              @ ../../../../Library/StdDriver/src/spim_hyper.c:115:18
	ldr.w	r1, [r0, #128]
	.loc	5 115 5 is_stmt 0               @ ../../../../Library/StdDriver/src/spim_hyper.c:115:5
	cbz	r1, .LBB4_14
.Ltmp211:
@ %bb.7:                                @   in Loop: Header=BB4_6 Depth=1
	@DEBUG_VALUE: spim_hyper_wait_cmdidle:i32TimeOutCnt <- [DW_OP_deref] $sp
	@DEBUG_VALUE: spim_hyper_wait_cmdidle:spim <- $r0
	@DEBUG_VALUE: SPIM_HYPER_ReadHyperRAMReg:u32Addr <- [DW_OP_LLVM_entry_value 1] $r1
	@DEBUG_VALUE: SPIM_HYPER_ReadHyperRAMReg:spim <- $r0
	.loc	5 117 13 is_stmt 1              @ ../../../../Library/StdDriver/src/spim_hyper.c:117:13
	ldr	r1, [sp]
	subs	r2, r1, #1
.Ltmp212:
	.loc	5 117 13 is_stmt 0              @ ../../../../Library/StdDriver/src/spim_hyper.c:117:13
	cmp	r1, #2
.Ltmp213:
	@DEBUG_VALUE: spim_hyper_wait_cmdidle:i32TimeOutCnt <- [DW_OP_constu 1, DW_OP_minus, DW_OP_stack_value] undef
	.loc	5 117 13                        @ ../../../../Library/StdDriver/src/spim_hyper.c:117:13
	str	r2, [sp]
.Ltmp214:
	.loc	5 117 13                        @ ../../../../Library/StdDriver/src/spim_hyper.c:117:13
	blt	.LBB4_14
.Ltmp215:
@ %bb.8:                                @   in Loop: Header=BB4_6 Depth=1
	@DEBUG_VALUE: spim_hyper_wait_cmdidle:spim <- $r0
	@DEBUG_VALUE: SPIM_HYPER_ReadHyperRAMReg:u32Addr <- [DW_OP_LLVM_entry_value 1] $r1
	@DEBUG_VALUE: SPIM_HYPER_ReadHyperRAMReg:spim <- $r0
	.loc	5 115 18 is_stmt 1              @ ../../../../Library/StdDriver/src/spim_hyper.c:115:18
	ldr.w	r1, [r0, #128]
	.loc	5 115 5 is_stmt 0               @ ../../../../Library/StdDriver/src/spim_hyper.c:115:5
	cbz	r1, .LBB4_14
.Ltmp216:
@ %bb.9:                                @   in Loop: Header=BB4_6 Depth=1
	@DEBUG_VALUE: spim_hyper_wait_cmdidle:spim <- $r0
	@DEBUG_VALUE: SPIM_HYPER_ReadHyperRAMReg:u32Addr <- [DW_OP_LLVM_entry_value 1] $r1
	@DEBUG_VALUE: SPIM_HYPER_ReadHyperRAMReg:spim <- $r0
	.loc	5 117 13 is_stmt 1              @ ../../../../Library/StdDriver/src/spim_hyper.c:117:13
	ldr	r1, [sp]
	subs	r2, r1, #1
.Ltmp217:
	.loc	5 117 13 is_stmt 0              @ ../../../../Library/StdDriver/src/spim_hyper.c:117:13
	cmp	r1, #2
.Ltmp218:
	@DEBUG_VALUE: spim_hyper_wait_cmdidle:i32TimeOutCnt <- [DW_OP_constu 1, DW_OP_minus, DW_OP_stack_value] undef
	.loc	5 117 13                        @ ../../../../Library/StdDriver/src/spim_hyper.c:117:13
	str	r2, [sp]
.Ltmp219:
	.loc	5 117 13                        @ ../../../../Library/StdDriver/src/spim_hyper.c:117:13
	blt	.LBB4_14
.Ltmp220:
@ %bb.10:                               @   in Loop: Header=BB4_6 Depth=1
	@DEBUG_VALUE: spim_hyper_wait_cmdidle:spim <- $r0
	@DEBUG_VALUE: SPIM_HYPER_ReadHyperRAMReg:u32Addr <- [DW_OP_LLVM_entry_value 1] $r1
	@DEBUG_VALUE: SPIM_HYPER_ReadHyperRAMReg:spim <- $r0
	.loc	5 115 18 is_stmt 1              @ ../../../../Library/StdDriver/src/spim_hyper.c:115:18
	ldr.w	r1, [r0, #128]
	.loc	5 115 5 is_stmt 0               @ ../../../../Library/StdDriver/src/spim_hyper.c:115:5
	cbz	r1, .LBB4_14
.Ltmp221:
@ %bb.11:                               @   in Loop: Header=BB4_6 Depth=1
	@DEBUG_VALUE: spim_hyper_wait_cmdidle:spim <- $r0
	@DEBUG_VALUE: SPIM_HYPER_ReadHyperRAMReg:u32Addr <- [DW_OP_LLVM_entry_value 1] $r1
	@DEBUG_VALUE: SPIM_HYPER_ReadHyperRAMReg:spim <- $r0
	.loc	5 117 13 is_stmt 1              @ ../../../../Library/StdDriver/src/spim_hyper.c:117:13
	ldr	r1, [sp]
	subs	r2, r1, #1
.Ltmp222:
	.loc	5 117 13 is_stmt 0              @ ../../../../Library/StdDriver/src/spim_hyper.c:117:13
	cmp	r1, #2
.Ltmp223:
	@DEBUG_VALUE: spim_hyper_wait_cmdidle:i32TimeOutCnt <- [DW_OP_constu 1, DW_OP_minus, DW_OP_stack_value] undef
	.loc	5 117 13                        @ ../../../../Library/StdDriver/src/spim_hyper.c:117:13
	str	r2, [sp]
.Ltmp224:
	.loc	5 117 13                        @ ../../../../Library/StdDriver/src/spim_hyper.c:117:13
	blt	.LBB4_14
.Ltmp225:
@ %bb.12:                               @   in Loop: Header=BB4_6 Depth=1
	@DEBUG_VALUE: spim_hyper_wait_cmdidle:spim <- $r0
	@DEBUG_VALUE: SPIM_HYPER_ReadHyperRAMReg:u32Addr <- [DW_OP_LLVM_entry_value 1] $r1
	@DEBUG_VALUE: SPIM_HYPER_ReadHyperRAMReg:spim <- $r0
	.loc	5 115 18 is_stmt 1              @ ../../../../Library/StdDriver/src/spim_hyper.c:115:18
	ldr.w	r1, [r0, #128]
	.loc	5 115 5 is_stmt 0               @ ../../../../Library/StdDriver/src/spim_hyper.c:115:5
	cbz	r1, .LBB4_14
.Ltmp226:
@ %bb.13:                               @   in Loop: Header=BB4_6 Depth=1
	@DEBUG_VALUE: spim_hyper_wait_cmdidle:spim <- $r0
	@DEBUG_VALUE: SPIM_HYPER_ReadHyperRAMReg:u32Addr <- [DW_OP_LLVM_entry_value 1] $r1
	@DEBUG_VALUE: SPIM_HYPER_ReadHyperRAMReg:spim <- $r0
	.loc	5 117 13 is_stmt 1              @ ../../../../Library/StdDriver/src/spim_hyper.c:117:13
	ldr	r1, [sp]
	subs	r1, #1
	str	r1, [sp]
.Ltmp227:
	@DEBUG_VALUE: spim_hyper_wait_cmdidle:i32TimeOutCnt <- [DW_OP_deref] $sp
	.loc	5 117 13 is_stmt 0              @ ../../../../Library/StdDriver/src/spim_hyper.c:117:13
	bgt	.LBB4_6
.Ltmp228:
.LBB4_14:
	@DEBUG_VALUE: SPIM_HYPER_ReadHyperRAMReg:u32Addr <- [DW_OP_LLVM_entry_value 1] $r1
	@DEBUG_VALUE: SPIM_HYPER_ReadHyperRAMReg:spim <- $r0
	.loc	5 303 19 is_stmt 1              @ ../../../../Library/StdDriver/src/spim_hyper.c:303:19
	ldr.w	r0, [r0, #148]
.Ltmp229:
	@DEBUG_VALUE: SPIM_HYPER_ReadHyperRAMReg:spim <- [DW_OP_LLVM_entry_value 1] $r0
	.loc	5 303 31 is_stmt 0              @ ../../../../Library/StdDriver/src/spim_hyper.c:303:31
	uxth	r2, r0
	add	sp, #4
	.loc	5 304 1 is_stmt 1               @ ../../../../Library/StdDriver/src/spim_hyper.c:304:1
	mov	r0, r2
	bx	lr
.Ltmp230:
.Lfunc_end4:
	.size	SPIM_HYPER_ReadHyperRAMReg, .Lfunc_end4-SPIM_HYPER_ReadHyperRAMReg
	.cfi_endproc
	.cantunwind
	.fnend
                                        @ -- End function
	.section	.text.SPIM_HYPER_WriteHyperRAMReg,"ax",%progbits
	.hidden	SPIM_HYPER_WriteHyperRAMReg     @ -- Begin function SPIM_HYPER_WriteHyperRAMReg
	.globl	SPIM_HYPER_WriteHyperRAMReg
	.p2align	2
	.type	SPIM_HYPER_WriteHyperRAMReg,%function
	.code	16                              @ @SPIM_HYPER_WriteHyperRAMReg
	.thumb_func
SPIM_HYPER_WriteHyperRAMReg:
.Lfunc_begin5:
	.fnstart
	.cfi_startproc
@ %bb.0:
	@DEBUG_VALUE: SPIM_HYPER_WriteHyperRAMReg:spim <- $r0
	@DEBUG_VALUE: SPIM_HYPER_WriteHyperRAMReg:u32Addr <- $r1
	@DEBUG_VALUE: SPIM_HYPER_WriteHyperRAMReg:u32Value <- $r2
	.loc	5 322 46 prologue_end           @ ../../../../Library/StdDriver/src/spim_hyper.c:322:46
	cmp.w	r1, #4096
	mov.w	r12, #-1
	bge	.LBB5_4
.Ltmp231:
@ %bb.1:
	@DEBUG_VALUE: SPIM_HYPER_WriteHyperRAMReg:u32Value <- $r2
	@DEBUG_VALUE: SPIM_HYPER_WriteHyperRAMReg:u32Addr <- $r1
	@DEBUG_VALUE: SPIM_HYPER_WriteHyperRAMReg:spim <- $r0
	cbz	r1, .LBB5_5
.Ltmp232:
@ %bb.2:
	@DEBUG_VALUE: SPIM_HYPER_WriteHyperRAMReg:u32Value <- $r2
	@DEBUG_VALUE: SPIM_HYPER_WriteHyperRAMReg:u32Addr <- $r1
	@DEBUG_VALUE: SPIM_HYPER_WriteHyperRAMReg:spim <- $r0
	cmp	r1, #2
	beq	.LBB5_5
.Ltmp233:
.LBB5_3:
	@DEBUG_VALUE: SPIM_HYPER_WriteHyperRAMReg:u32Value <- $r2
	@DEBUG_VALUE: SPIM_HYPER_WriteHyperRAMReg:u32Addr <- $r1
	@DEBUG_VALUE: SPIM_HYPER_WriteHyperRAMReg:spim <- $r0
	.loc	5 340 1                         @ ../../../../Library/StdDriver/src/spim_hyper.c:340:1
	mov	r0, r12
.Ltmp234:
	@DEBUG_VALUE: SPIM_HYPER_WriteHyperRAMReg:spim <- [DW_OP_LLVM_entry_value 1] $r0
	bx	lr
.Ltmp235:
.LBB5_4:
	@DEBUG_VALUE: SPIM_HYPER_WriteHyperRAMReg:u32Value <- $r2
	@DEBUG_VALUE: SPIM_HYPER_WriteHyperRAMReg:u32Addr <- $r1
	@DEBUG_VALUE: SPIM_HYPER_WriteHyperRAMReg:spim <- $r0
	.loc	5 0 1 is_stmt 0                 @ ../../../../Library/StdDriver/src/spim_hyper.c:0:1
	movw	r3, #4098
.Ltmp236:
	.loc	5 322 46 is_stmt 1              @ ../../../../Library/StdDriver/src/spim_hyper.c:322:46
	cmp	r1, r3
	it	ne
	cmpne.w	r1, #4096
	bne	.LBB5_3
.Ltmp237:
.LBB5_5:
	@DEBUG_VALUE: SPIM_HYPER_WriteHyperRAMReg:u32Value <- $r2
	@DEBUG_VALUE: SPIM_HYPER_WriteHyperRAMReg:u32Addr <- $r1
	@DEBUG_VALUE: SPIM_HYPER_WriteHyperRAMReg:spim <- $r0
	.pad	#4
	sub	sp, #4
	.cfi_def_cfa_offset 4
	.loc	5 330 5                         @ ../../../../Library/StdDriver/src/spim_hyper.c:330:5
	ldr.w	r3, [r0, #144]
	movs	r3, #0
	str.w	r3, [r0, #144]
	.loc	5 332 21                        @ ../../../../Library/StdDriver/src/spim_hyper.c:332:21
	str.w	r1, [r0, #140]
	movs	r1, #7
.Ltmp238:
	@DEBUG_VALUE: SPIM_HYPER_WriteHyperRAMReg:u32Addr <- [DW_OP_LLVM_entry_value 1] $r1
	.loc	5 333 23                        @ ../../../../Library/StdDriver/src/spim_hyper.c:333:23
	str.w	r2, [r0, #144]
	.loc	5 335 21                        @ ../../../../Library/StdDriver/src/spim_hyper.c:335:21
	str.w	r1, [r0, #128]
.Ltmp239:
	@DEBUG_VALUE: spim_hyper_wait_cmdidle:spim <- $r0
	@DEBUG_VALUE: spim_hyper_wait_cmdidle:i32TimeOutCnt <- [DW_OP_deref] $sp
	.loc	5 113 38                        @ ../../../../Library/StdDriver/src/spim_hyper.c:113:38
	movw	r1, :lower16:SystemCoreClock
	movt	r1, :upper16:SystemCoreClock
	ldr	r1, [r1]
	.loc	5 113 22 is_stmt 0              @ ../../../../Library/StdDriver/src/spim_hyper.c:113:22
	str	r1, [sp]
.Ltmp240:
.LBB5_6:                                @ =>This Inner Loop Header: Depth=1
	@DEBUG_VALUE: spim_hyper_wait_cmdidle:i32TimeOutCnt <- [DW_OP_deref] $sp
	@DEBUG_VALUE: spim_hyper_wait_cmdidle:spim <- $r0
	@DEBUG_VALUE: SPIM_HYPER_WriteHyperRAMReg:u32Addr <- [DW_OP_LLVM_entry_value 1] $r1
	@DEBUG_VALUE: SPIM_HYPER_WriteHyperRAMReg:spim <- $r0
	.loc	5 115 18 is_stmt 1              @ ../../../../Library/StdDriver/src/spim_hyper.c:115:18
	ldr.w	r1, [r0, #128]
	.loc	5 115 5 is_stmt 0               @ ../../../../Library/StdDriver/src/spim_hyper.c:115:5
	cbz	r1, .LBB5_14
.Ltmp241:
@ %bb.7:                                @   in Loop: Header=BB5_6 Depth=1
	@DEBUG_VALUE: spim_hyper_wait_cmdidle:i32TimeOutCnt <- [DW_OP_deref] $sp
	@DEBUG_VALUE: spim_hyper_wait_cmdidle:spim <- $r0
	@DEBUG_VALUE: SPIM_HYPER_WriteHyperRAMReg:u32Addr <- [DW_OP_LLVM_entry_value 1] $r1
	@DEBUG_VALUE: SPIM_HYPER_WriteHyperRAMReg:spim <- $r0
	.loc	5 117 13 is_stmt 1              @ ../../../../Library/StdDriver/src/spim_hyper.c:117:13
	ldr	r1, [sp]
	subs	r2, r1, #1
.Ltmp242:
	@DEBUG_VALUE: SPIM_HYPER_WriteHyperRAMReg:u32Value <- [DW_OP_LLVM_entry_value 1] $r2
	.loc	5 117 13 is_stmt 0              @ ../../../../Library/StdDriver/src/spim_hyper.c:117:13
	cmp	r1, #2
.Ltmp243:
	@DEBUG_VALUE: spim_hyper_wait_cmdidle:i32TimeOutCnt <- [DW_OP_constu 1, DW_OP_minus, DW_OP_stack_value] undef
	.loc	5 117 13                        @ ../../../../Library/StdDriver/src/spim_hyper.c:117:13
	str	r2, [sp]
.Ltmp244:
	.loc	5 117 13                        @ ../../../../Library/StdDriver/src/spim_hyper.c:117:13
	blt	.LBB5_14
.Ltmp245:
@ %bb.8:                                @   in Loop: Header=BB5_6 Depth=1
	@DEBUG_VALUE: spim_hyper_wait_cmdidle:spim <- $r0
	@DEBUG_VALUE: SPIM_HYPER_WriteHyperRAMReg:u32Addr <- [DW_OP_LLVM_entry_value 1] $r1
	@DEBUG_VALUE: SPIM_HYPER_WriteHyperRAMReg:spim <- $r0
	.loc	5 115 18 is_stmt 1              @ ../../../../Library/StdDriver/src/spim_hyper.c:115:18
	ldr.w	r1, [r0, #128]
	.loc	5 115 5 is_stmt 0               @ ../../../../Library/StdDriver/src/spim_hyper.c:115:5
	cbz	r1, .LBB5_14
.Ltmp246:
@ %bb.9:                                @   in Loop: Header=BB5_6 Depth=1
	@DEBUG_VALUE: spim_hyper_wait_cmdidle:spim <- $r0
	@DEBUG_VALUE: SPIM_HYPER_WriteHyperRAMReg:u32Addr <- [DW_OP_LLVM_entry_value 1] $r1
	@DEBUG_VALUE: SPIM_HYPER_WriteHyperRAMReg:spim <- $r0
	.loc	5 117 13 is_stmt 1              @ ../../../../Library/StdDriver/src/spim_hyper.c:117:13
	ldr	r1, [sp]
	subs	r2, r1, #1
.Ltmp247:
	.loc	5 117 13 is_stmt 0              @ ../../../../Library/StdDriver/src/spim_hyper.c:117:13
	cmp	r1, #2
.Ltmp248:
	@DEBUG_VALUE: spim_hyper_wait_cmdidle:i32TimeOutCnt <- [DW_OP_constu 1, DW_OP_minus, DW_OP_stack_value] undef
	.loc	5 117 13                        @ ../../../../Library/StdDriver/src/spim_hyper.c:117:13
	str	r2, [sp]
.Ltmp249:
	.loc	5 117 13                        @ ../../../../Library/StdDriver/src/spim_hyper.c:117:13
	blt	.LBB5_14
.Ltmp250:
@ %bb.10:                               @   in Loop: Header=BB5_6 Depth=1
	@DEBUG_VALUE: spim_hyper_wait_cmdidle:spim <- $r0
	@DEBUG_VALUE: SPIM_HYPER_WriteHyperRAMReg:u32Addr <- [DW_OP_LLVM_entry_value 1] $r1
	@DEBUG_VALUE: SPIM_HYPER_WriteHyperRAMReg:spim <- $r0
	.loc	5 115 18 is_stmt 1              @ ../../../../Library/StdDriver/src/spim_hyper.c:115:18
	ldr.w	r1, [r0, #128]
	.loc	5 115 5 is_stmt 0               @ ../../../../Library/StdDriver/src/spim_hyper.c:115:5
	cbz	r1, .LBB5_14
.Ltmp251:
@ %bb.11:                               @   in Loop: Header=BB5_6 Depth=1
	@DEBUG_VALUE: spim_hyper_wait_cmdidle:spim <- $r0
	@DEBUG_VALUE: SPIM_HYPER_WriteHyperRAMReg:u32Addr <- [DW_OP_LLVM_entry_value 1] $r1
	@DEBUG_VALUE: SPIM_HYPER_WriteHyperRAMReg:spim <- $r0
	.loc	5 117 13 is_stmt 1              @ ../../../../Library/StdDriver/src/spim_hyper.c:117:13
	ldr	r1, [sp]
	subs	r2, r1, #1
.Ltmp252:
	.loc	5 117 13 is_stmt 0              @ ../../../../Library/StdDriver/src/spim_hyper.c:117:13
	cmp	r1, #2
.Ltmp253:
	@DEBUG_VALUE: spim_hyper_wait_cmdidle:i32TimeOutCnt <- [DW_OP_constu 1, DW_OP_minus, DW_OP_stack_value] undef
	.loc	5 117 13                        @ ../../../../Library/StdDriver/src/spim_hyper.c:117:13
	str	r2, [sp]
.Ltmp254:
	.loc	5 117 13                        @ ../../../../Library/StdDriver/src/spim_hyper.c:117:13
	blt	.LBB5_14
.Ltmp255:
@ %bb.12:                               @   in Loop: Header=BB5_6 Depth=1
	@DEBUG_VALUE: spim_hyper_wait_cmdidle:spim <- $r0
	@DEBUG_VALUE: SPIM_HYPER_WriteHyperRAMReg:u32Addr <- [DW_OP_LLVM_entry_value 1] $r1
	@DEBUG_VALUE: SPIM_HYPER_WriteHyperRAMReg:spim <- $r0
	.loc	5 115 18 is_stmt 1              @ ../../../../Library/StdDriver/src/spim_hyper.c:115:18
	ldr.w	r1, [r0, #128]
	.loc	5 115 5 is_stmt 0               @ ../../../../Library/StdDriver/src/spim_hyper.c:115:5
	cbz	r1, .LBB5_14
.Ltmp256:
@ %bb.13:                               @   in Loop: Header=BB5_6 Depth=1
	@DEBUG_VALUE: spim_hyper_wait_cmdidle:spim <- $r0
	@DEBUG_VALUE: SPIM_HYPER_WriteHyperRAMReg:u32Addr <- [DW_OP_LLVM_entry_value 1] $r1
	@DEBUG_VALUE: SPIM_HYPER_WriteHyperRAMReg:spim <- $r0
	.loc	5 117 13 is_stmt 1              @ ../../../../Library/StdDriver/src/spim_hyper.c:117:13
	ldr	r1, [sp]
	subs	r1, #1
	str	r1, [sp]
.Ltmp257:
	@DEBUG_VALUE: spim_hyper_wait_cmdidle:i32TimeOutCnt <- [DW_OP_deref] $sp
	.loc	5 117 13 is_stmt 0              @ ../../../../Library/StdDriver/src/spim_hyper.c:117:13
	bgt	.LBB5_6
.Ltmp258:
.LBB5_14:
	@DEBUG_VALUE: SPIM_HYPER_WriteHyperRAMReg:u32Addr <- [DW_OP_LLVM_entry_value 1] $r1
	@DEBUG_VALUE: SPIM_HYPER_WriteHyperRAMReg:spim <- $r0
	.loc	5 0 13                          @ ../../../../Library/StdDriver/src/spim_hyper.c:0:13
	mov.w	r12, #0
	add	sp, #4
	.loc	5 340 1 is_stmt 1               @ ../../../../Library/StdDriver/src/spim_hyper.c:340:1
	mov	r0, r12
.Ltmp259:
	@DEBUG_VALUE: SPIM_HYPER_WriteHyperRAMReg:spim <- [DW_OP_LLVM_entry_value 1] $r0
	bx	lr
.Ltmp260:
.Lfunc_end5:
	.size	SPIM_HYPER_WriteHyperRAMReg, .Lfunc_end5-SPIM_HYPER_WriteHyperRAMReg
	.cfi_endproc
	.cantunwind
	.fnend
                                        @ -- End function
	.section	.text.SPIM_HYPER_Read1Word,"ax",%progbits
	.hidden	SPIM_HYPER_Read1Word            @ -- Begin function SPIM_HYPER_Read1Word
	.globl	SPIM_HYPER_Read1Word
	.p2align	2
	.type	SPIM_HYPER_Read1Word,%function
	.code	16                              @ @SPIM_HYPER_Read1Word
	.thumb_func
SPIM_HYPER_Read1Word:
.Lfunc_begin6:
	.loc	5 350 0                         @ ../../../../Library/StdDriver/src/spim_hyper.c:350:0
	.fnstart
	.cfi_startproc
@ %bb.0:
	@DEBUG_VALUE: SPIM_HYPER_Read1Word:spim <- $r0
	@DEBUG_VALUE: SPIM_HYPER_Read1Word:u32Addr <- $r1
	.pad	#4
	sub	sp, #4
	.cfi_def_cfa_offset 4
.Ltmp261:
	.loc	5 351 21 prologue_end           @ ../../../../Library/StdDriver/src/spim_hyper.c:351:21
	str.w	r1, [r0, #140]
	movs	r1, #8
.Ltmp262:
	@DEBUG_VALUE: SPIM_HYPER_Read1Word:u32Addr <- [DW_OP_LLVM_entry_value 1] $r1
	.loc	5 353 21                        @ ../../../../Library/StdDriver/src/spim_hyper.c:353:21
	str.w	r1, [r0, #128]
.Ltmp263:
	@DEBUG_VALUE: spim_hyper_wait_cmdidle:spim <- $r0
	@DEBUG_VALUE: spim_hyper_wait_cmdidle:i32TimeOutCnt <- [DW_OP_deref] $sp
	.loc	5 113 38                        @ ../../../../Library/StdDriver/src/spim_hyper.c:113:38
	movw	r1, :lower16:SystemCoreClock
	movt	r1, :upper16:SystemCoreClock
	ldr	r1, [r1]
	.loc	5 113 22 is_stmt 0              @ ../../../../Library/StdDriver/src/spim_hyper.c:113:22
	str	r1, [sp]
.Ltmp264:
.LBB6_1:                                @ =>This Inner Loop Header: Depth=1
	@DEBUG_VALUE: spim_hyper_wait_cmdidle:i32TimeOutCnt <- [DW_OP_deref] $sp
	@DEBUG_VALUE: spim_hyper_wait_cmdidle:spim <- $r0
	@DEBUG_VALUE: SPIM_HYPER_Read1Word:u32Addr <- [DW_OP_LLVM_entry_value 1] $r1
	@DEBUG_VALUE: SPIM_HYPER_Read1Word:spim <- $r0
	.loc	5 115 18 is_stmt 1              @ ../../../../Library/StdDriver/src/spim_hyper.c:115:18
	ldr.w	r1, [r0, #128]
	.loc	5 115 5 is_stmt 0               @ ../../../../Library/StdDriver/src/spim_hyper.c:115:5
	cbz	r1, .LBB6_9
.Ltmp265:
@ %bb.2:                                @   in Loop: Header=BB6_1 Depth=1
	@DEBUG_VALUE: spim_hyper_wait_cmdidle:i32TimeOutCnt <- [DW_OP_deref] $sp
	@DEBUG_VALUE: spim_hyper_wait_cmdidle:spim <- $r0
	@DEBUG_VALUE: SPIM_HYPER_Read1Word:u32Addr <- [DW_OP_LLVM_entry_value 1] $r1
	@DEBUG_VALUE: SPIM_HYPER_Read1Word:spim <- $r0
	.loc	5 117 13 is_stmt 1              @ ../../../../Library/StdDriver/src/spim_hyper.c:117:13
	ldr	r1, [sp]
	subs	r2, r1, #1
.Ltmp266:
	.loc	5 117 13 is_stmt 0              @ ../../../../Library/StdDriver/src/spim_hyper.c:117:13
	cmp	r1, #2
.Ltmp267:
	@DEBUG_VALUE: spim_hyper_wait_cmdidle:i32TimeOutCnt <- [DW_OP_constu 1, DW_OP_minus, DW_OP_stack_value] undef
	.loc	5 117 13                        @ ../../../../Library/StdDriver/src/spim_hyper.c:117:13
	str	r2, [sp]
.Ltmp268:
	.loc	5 117 13                        @ ../../../../Library/StdDriver/src/spim_hyper.c:117:13
	blt	.LBB6_9
.Ltmp269:
@ %bb.3:                                @   in Loop: Header=BB6_1 Depth=1
	@DEBUG_VALUE: spim_hyper_wait_cmdidle:spim <- $r0
	@DEBUG_VALUE: SPIM_HYPER_Read1Word:u32Addr <- [DW_OP_LLVM_entry_value 1] $r1
	@DEBUG_VALUE: SPIM_HYPER_Read1Word:spim <- $r0
	.loc	5 115 18 is_stmt 1              @ ../../../../Library/StdDriver/src/spim_hyper.c:115:18
	ldr.w	r1, [r0, #128]
	.loc	5 115 5 is_stmt 0               @ ../../../../Library/StdDriver/src/spim_hyper.c:115:5
	cbz	r1, .LBB6_9
.Ltmp270:
@ %bb.4:                                @   in Loop: Header=BB6_1 Depth=1
	@DEBUG_VALUE: spim_hyper_wait_cmdidle:spim <- $r0
	@DEBUG_VALUE: SPIM_HYPER_Read1Word:u32Addr <- [DW_OP_LLVM_entry_value 1] $r1
	@DEBUG_VALUE: SPIM_HYPER_Read1Word:spim <- $r0
	.loc	5 117 13 is_stmt 1              @ ../../../../Library/StdDriver/src/spim_hyper.c:117:13
	ldr	r1, [sp]
	subs	r2, r1, #1
.Ltmp271:
	.loc	5 117 13 is_stmt 0              @ ../../../../Library/StdDriver/src/spim_hyper.c:117:13
	cmp	r1, #2
.Ltmp272:
	@DEBUG_VALUE: spim_hyper_wait_cmdidle:i32TimeOutCnt <- [DW_OP_constu 1, DW_OP_minus, DW_OP_stack_value] undef
	.loc	5 117 13                        @ ../../../../Library/StdDriver/src/spim_hyper.c:117:13
	str	r2, [sp]
.Ltmp273:
	.loc	5 117 13                        @ ../../../../Library/StdDriver/src/spim_hyper.c:117:13
	blt	.LBB6_9
.Ltmp274:
@ %bb.5:                                @   in Loop: Header=BB6_1 Depth=1
	@DEBUG_VALUE: spim_hyper_wait_cmdidle:spim <- $r0
	@DEBUG_VALUE: SPIM_HYPER_Read1Word:u32Addr <- [DW_OP_LLVM_entry_value 1] $r1
	@DEBUG_VALUE: SPIM_HYPER_Read1Word:spim <- $r0
	.loc	5 115 18 is_stmt 1              @ ../../../../Library/StdDriver/src/spim_hyper.c:115:18
	ldr.w	r1, [r0, #128]
	.loc	5 115 5 is_stmt 0               @ ../../../../Library/StdDriver/src/spim_hyper.c:115:5
	cbz	r1, .LBB6_9
.Ltmp275:
@ %bb.6:                                @   in Loop: Header=BB6_1 Depth=1
	@DEBUG_VALUE: spim_hyper_wait_cmdidle:spim <- $r0
	@DEBUG_VALUE: SPIM_HYPER_Read1Word:u32Addr <- [DW_OP_LLVM_entry_value 1] $r1
	@DEBUG_VALUE: SPIM_HYPER_Read1Word:spim <- $r0
	.loc	5 117 13 is_stmt 1              @ ../../../../Library/StdDriver/src/spim_hyper.c:117:13
	ldr	r1, [sp]
	subs	r2, r1, #1
.Ltmp276:
	.loc	5 117 13 is_stmt 0              @ ../../../../Library/StdDriver/src/spim_hyper.c:117:13
	cmp	r1, #2
.Ltmp277:
	@DEBUG_VALUE: spim_hyper_wait_cmdidle:i32TimeOutCnt <- [DW_OP_constu 1, DW_OP_minus, DW_OP_stack_value] undef
	.loc	5 117 13                        @ ../../../../Library/StdDriver/src/spim_hyper.c:117:13
	str	r2, [sp]
.Ltmp278:
	.loc	5 117 13                        @ ../../../../Library/StdDriver/src/spim_hyper.c:117:13
	blt	.LBB6_9
.Ltmp279:
@ %bb.7:                                @   in Loop: Header=BB6_1 Depth=1
	@DEBUG_VALUE: spim_hyper_wait_cmdidle:spim <- $r0
	@DEBUG_VALUE: SPIM_HYPER_Read1Word:u32Addr <- [DW_OP_LLVM_entry_value 1] $r1
	@DEBUG_VALUE: SPIM_HYPER_Read1Word:spim <- $r0
	.loc	5 115 18 is_stmt 1              @ ../../../../Library/StdDriver/src/spim_hyper.c:115:18
	ldr.w	r1, [r0, #128]
	.loc	5 115 5 is_stmt 0               @ ../../../../Library/StdDriver/src/spim_hyper.c:115:5
	cbz	r1, .LBB6_9
.Ltmp280:
@ %bb.8:                                @   in Loop: Header=BB6_1 Depth=1
	@DEBUG_VALUE: spim_hyper_wait_cmdidle:spim <- $r0
	@DEBUG_VALUE: SPIM_HYPER_Read1Word:u32Addr <- [DW_OP_LLVM_entry_value 1] $r1
	@DEBUG_VALUE: SPIM_HYPER_Read1Word:spim <- $r0
	.loc	5 117 13 is_stmt 1              @ ../../../../Library/StdDriver/src/spim_hyper.c:117:13
	ldr	r1, [sp]
	subs	r1, #1
	str	r1, [sp]
.Ltmp281:
	@DEBUG_VALUE: spim_hyper_wait_cmdidle:i32TimeOutCnt <- [DW_OP_deref] $sp
	.loc	5 117 13 is_stmt 0              @ ../../../../Library/StdDriver/src/spim_hyper.c:117:13
	bgt	.LBB6_1
.Ltmp282:
.LBB6_9:
	@DEBUG_VALUE: SPIM_HYPER_Read1Word:u32Addr <- [DW_OP_LLVM_entry_value 1] $r1
	@DEBUG_VALUE: SPIM_HYPER_Read1Word:spim <- $r0
	.loc	5 357 19 is_stmt 1              @ ../../../../Library/StdDriver/src/spim_hyper.c:357:19
	ldr.w	r0, [r0, #148]
.Ltmp283:
	@DEBUG_VALUE: SPIM_HYPER_Read1Word:spim <- [DW_OP_LLVM_entry_value 1] $r0
	.loc	5 357 5 is_stmt 0               @ ../../../../Library/StdDriver/src/spim_hyper.c:357:5
	sxth	r0, r0
	.loc	5 357 5 epilogue_begin          @ ../../../../Library/StdDriver/src/spim_hyper.c:357:5
	add	sp, #4
	bx	lr
.Ltmp284:
.Lfunc_end6:
	.size	SPIM_HYPER_Read1Word, .Lfunc_end6-SPIM_HYPER_Read1Word
	.cfi_endproc
	.cantunwind
	.fnend
                                        @ -- End function
	.section	.text.SPIM_HYPER_Read2Word,"ax",%progbits
	.hidden	SPIM_HYPER_Read2Word            @ -- Begin function SPIM_HYPER_Read2Word
	.globl	SPIM_HYPER_Read2Word
	.p2align	2
	.type	SPIM_HYPER_Read2Word,%function
	.code	16                              @ @SPIM_HYPER_Read2Word
	.thumb_func
SPIM_HYPER_Read2Word:
.Lfunc_begin7:
	.loc	5 367 0 is_stmt 1               @ ../../../../Library/StdDriver/src/spim_hyper.c:367:0
	.fnstart
	.cfi_startproc
@ %bb.0:
	@DEBUG_VALUE: SPIM_HYPER_Read2Word:spim <- $r0
	@DEBUG_VALUE: SPIM_HYPER_Read2Word:u32Addr <- $r1
	.pad	#4
	sub	sp, #4
	.cfi_def_cfa_offset 4
.Ltmp285:
	.loc	5 368 21 prologue_end           @ ../../../../Library/StdDriver/src/spim_hyper.c:368:21
	str.w	r1, [r0, #140]
	movs	r1, #9
.Ltmp286:
	@DEBUG_VALUE: SPIM_HYPER_Read2Word:u32Addr <- [DW_OP_LLVM_entry_value 1] $r1
	.loc	5 370 21                        @ ../../../../Library/StdDriver/src/spim_hyper.c:370:21
	str.w	r1, [r0, #128]
.Ltmp287:
	@DEBUG_VALUE: spim_hyper_wait_cmdidle:spim <- $r0
	@DEBUG_VALUE: spim_hyper_wait_cmdidle:i32TimeOutCnt <- [DW_OP_deref] $sp
	.loc	5 113 38                        @ ../../../../Library/StdDriver/src/spim_hyper.c:113:38
	movw	r1, :lower16:SystemCoreClock
	movt	r1, :upper16:SystemCoreClock
	ldr	r1, [r1]
	.loc	5 113 22 is_stmt 0              @ ../../../../Library/StdDriver/src/spim_hyper.c:113:22
	str	r1, [sp]
.Ltmp288:
.LBB7_1:                                @ =>This Inner Loop Header: Depth=1
	@DEBUG_VALUE: spim_hyper_wait_cmdidle:i32TimeOutCnt <- [DW_OP_deref] $sp
	@DEBUG_VALUE: spim_hyper_wait_cmdidle:spim <- $r0
	@DEBUG_VALUE: SPIM_HYPER_Read2Word:u32Addr <- [DW_OP_LLVM_entry_value 1] $r1
	@DEBUG_VALUE: SPIM_HYPER_Read2Word:spim <- $r0
	.loc	5 115 18 is_stmt 1              @ ../../../../Library/StdDriver/src/spim_hyper.c:115:18
	ldr.w	r1, [r0, #128]
	.loc	5 115 5 is_stmt 0               @ ../../../../Library/StdDriver/src/spim_hyper.c:115:5
	cbz	r1, .LBB7_9
.Ltmp289:
@ %bb.2:                                @   in Loop: Header=BB7_1 Depth=1
	@DEBUG_VALUE: spim_hyper_wait_cmdidle:i32TimeOutCnt <- [DW_OP_deref] $sp
	@DEBUG_VALUE: spim_hyper_wait_cmdidle:spim <- $r0
	@DEBUG_VALUE: SPIM_HYPER_Read2Word:u32Addr <- [DW_OP_LLVM_entry_value 1] $r1
	@DEBUG_VALUE: SPIM_HYPER_Read2Word:spim <- $r0
	.loc	5 117 13 is_stmt 1              @ ../../../../Library/StdDriver/src/spim_hyper.c:117:13
	ldr	r1, [sp]
	subs	r2, r1, #1
.Ltmp290:
	.loc	5 117 13 is_stmt 0              @ ../../../../Library/StdDriver/src/spim_hyper.c:117:13
	cmp	r1, #2
.Ltmp291:
	@DEBUG_VALUE: spim_hyper_wait_cmdidle:i32TimeOutCnt <- [DW_OP_constu 1, DW_OP_minus, DW_OP_stack_value] undef
	.loc	5 117 13                        @ ../../../../Library/StdDriver/src/spim_hyper.c:117:13
	str	r2, [sp]
.Ltmp292:
	.loc	5 117 13                        @ ../../../../Library/StdDriver/src/spim_hyper.c:117:13
	blt	.LBB7_9
.Ltmp293:
@ %bb.3:                                @   in Loop: Header=BB7_1 Depth=1
	@DEBUG_VALUE: spim_hyper_wait_cmdidle:spim <- $r0
	@DEBUG_VALUE: SPIM_HYPER_Read2Word:u32Addr <- [DW_OP_LLVM_entry_value 1] $r1
	@DEBUG_VALUE: SPIM_HYPER_Read2Word:spim <- $r0
	.loc	5 115 18 is_stmt 1              @ ../../../../Library/StdDriver/src/spim_hyper.c:115:18
	ldr.w	r1, [r0, #128]
	.loc	5 115 5 is_stmt 0               @ ../../../../Library/StdDriver/src/spim_hyper.c:115:5
	cbz	r1, .LBB7_9
.Ltmp294:
@ %bb.4:                                @   in Loop: Header=BB7_1 Depth=1
	@DEBUG_VALUE: spim_hyper_wait_cmdidle:spim <- $r0
	@DEBUG_VALUE: SPIM_HYPER_Read2Word:u32Addr <- [DW_OP_LLVM_entry_value 1] $r1
	@DEBUG_VALUE: SPIM_HYPER_Read2Word:spim <- $r0
	.loc	5 117 13 is_stmt 1              @ ../../../../Library/StdDriver/src/spim_hyper.c:117:13
	ldr	r1, [sp]
	subs	r2, r1, #1
.Ltmp295:
	.loc	5 117 13 is_stmt 0              @ ../../../../Library/StdDriver/src/spim_hyper.c:117:13
	cmp	r1, #2
.Ltmp296:
	@DEBUG_VALUE: spim_hyper_wait_cmdidle:i32TimeOutCnt <- [DW_OP_constu 1, DW_OP_minus, DW_OP_stack_value] undef
	.loc	5 117 13                        @ ../../../../Library/StdDriver/src/spim_hyper.c:117:13
	str	r2, [sp]
.Ltmp297:
	.loc	5 117 13                        @ ../../../../Library/StdDriver/src/spim_hyper.c:117:13
	blt	.LBB7_9
.Ltmp298:
@ %bb.5:                                @   in Loop: Header=BB7_1 Depth=1
	@DEBUG_VALUE: spim_hyper_wait_cmdidle:spim <- $r0
	@DEBUG_VALUE: SPIM_HYPER_Read2Word:u32Addr <- [DW_OP_LLVM_entry_value 1] $r1
	@DEBUG_VALUE: SPIM_HYPER_Read2Word:spim <- $r0
	.loc	5 115 18 is_stmt 1              @ ../../../../Library/StdDriver/src/spim_hyper.c:115:18
	ldr.w	r1, [r0, #128]
	.loc	5 115 5 is_stmt 0               @ ../../../../Library/StdDriver/src/spim_hyper.c:115:5
	cbz	r1, .LBB7_9
.Ltmp299:
@ %bb.6:                                @   in Loop: Header=BB7_1 Depth=1
	@DEBUG_VALUE: spim_hyper_wait_cmdidle:spim <- $r0
	@DEBUG_VALUE: SPIM_HYPER_Read2Word:u32Addr <- [DW_OP_LLVM_entry_value 1] $r1
	@DEBUG_VALUE: SPIM_HYPER_Read2Word:spim <- $r0
	.loc	5 117 13 is_stmt 1              @ ../../../../Library/StdDriver/src/spim_hyper.c:117:13
	ldr	r1, [sp]
	subs	r2, r1, #1
.Ltmp300:
	.loc	5 117 13 is_stmt 0              @ ../../../../Library/StdDriver/src/spim_hyper.c:117:13
	cmp	r1, #2
.Ltmp301:
	@DEBUG_VALUE: spim_hyper_wait_cmdidle:i32TimeOutCnt <- [DW_OP_constu 1, DW_OP_minus, DW_OP_stack_value] undef
	.loc	5 117 13                        @ ../../../../Library/StdDriver/src/spim_hyper.c:117:13
	str	r2, [sp]
.Ltmp302:
	.loc	5 117 13                        @ ../../../../Library/StdDriver/src/spim_hyper.c:117:13
	blt	.LBB7_9
.Ltmp303:
@ %bb.7:                                @   in Loop: Header=BB7_1 Depth=1
	@DEBUG_VALUE: spim_hyper_wait_cmdidle:spim <- $r0
	@DEBUG_VALUE: SPIM_HYPER_Read2Word:u32Addr <- [DW_OP_LLVM_entry_value 1] $r1
	@DEBUG_VALUE: SPIM_HYPER_Read2Word:spim <- $r0
	.loc	5 115 18 is_stmt 1              @ ../../../../Library/StdDriver/src/spim_hyper.c:115:18
	ldr.w	r1, [r0, #128]
	.loc	5 115 5 is_stmt 0               @ ../../../../Library/StdDriver/src/spim_hyper.c:115:5
	cbz	r1, .LBB7_9
.Ltmp304:
@ %bb.8:                                @   in Loop: Header=BB7_1 Depth=1
	@DEBUG_VALUE: spim_hyper_wait_cmdidle:spim <- $r0
	@DEBUG_VALUE: SPIM_HYPER_Read2Word:u32Addr <- [DW_OP_LLVM_entry_value 1] $r1
	@DEBUG_VALUE: SPIM_HYPER_Read2Word:spim <- $r0
	.loc	5 117 13 is_stmt 1              @ ../../../../Library/StdDriver/src/spim_hyper.c:117:13
	ldr	r1, [sp]
	subs	r1, #1
	str	r1, [sp]
.Ltmp305:
	@DEBUG_VALUE: spim_hyper_wait_cmdidle:i32TimeOutCnt <- [DW_OP_deref] $sp
	.loc	5 117 13 is_stmt 0              @ ../../../../Library/StdDriver/src/spim_hyper.c:117:13
	bgt	.LBB7_1
.Ltmp306:
.LBB7_9:
	@DEBUG_VALUE: SPIM_HYPER_Read2Word:u32Addr <- [DW_OP_LLVM_entry_value 1] $r1
	@DEBUG_VALUE: SPIM_HYPER_Read2Word:spim <- $r0
	.loc	5 374 19 is_stmt 1              @ ../../../../Library/StdDriver/src/spim_hyper.c:374:19
	ldr.w	r0, [r0, #148]
.Ltmp307:
	@DEBUG_VALUE: SPIM_HYPER_Read2Word:spim <- [DW_OP_LLVM_entry_value 1] $r0
	.loc	5 374 5 epilogue_begin is_stmt 0 @ ../../../../Library/StdDriver/src/spim_hyper.c:374:5
	add	sp, #4
	bx	lr
.Ltmp308:
.Lfunc_end7:
	.size	SPIM_HYPER_Read2Word, .Lfunc_end7-SPIM_HYPER_Read2Word
	.cfi_endproc
	.cantunwind
	.fnend
                                        @ -- End function
	.section	.text.SPIM_HYPER_Write1Byte,"ax",%progbits
	.hidden	SPIM_HYPER_Write1Byte           @ -- Begin function SPIM_HYPER_Write1Byte
	.globl	SPIM_HYPER_Write1Byte
	.p2align	2
	.type	SPIM_HYPER_Write1Byte,%function
	.code	16                              @ @SPIM_HYPER_Write1Byte
	.thumb_func
SPIM_HYPER_Write1Byte:
.Lfunc_begin8:
	.loc	5 387 0 is_stmt 1               @ ../../../../Library/StdDriver/src/spim_hyper.c:387:0
	.fnstart
	.cfi_startproc
@ %bb.0:
	@DEBUG_VALUE: SPIM_HYPER_Write1Byte:spim <- $r0
	@DEBUG_VALUE: SPIM_HYPER_Write1Byte:u32Addr <- $r1
	@DEBUG_VALUE: SPIM_HYPER_Write1Byte:u8Data <- $r2
	.pad	#4
	sub	sp, #4
	.cfi_def_cfa_offset 4
.Ltmp309:
	.loc	5 388 5 prologue_end            @ ../../../../Library/StdDriver/src/spim_hyper.c:388:5
	ldr.w	r3, [r0, #144]
	movs	r3, #0
	str.w	r3, [r0, #144]
	.loc	5 390 21                        @ ../../../../Library/StdDriver/src/spim_hyper.c:390:21
	str.w	r1, [r0, #140]
	movs	r1, #12
.Ltmp310:
	@DEBUG_VALUE: SPIM_HYPER_Write1Byte:u32Addr <- [DW_OP_LLVM_entry_value 1] $r1
	.loc	5 391 23                        @ ../../../../Library/StdDriver/src/spim_hyper.c:391:23
	str.w	r2, [r0, #144]
	.loc	5 393 21                        @ ../../../../Library/StdDriver/src/spim_hyper.c:393:21
	str.w	r1, [r0, #128]
.Ltmp311:
	@DEBUG_VALUE: spim_hyper_wait_cmdidle:spim <- $r0
	@DEBUG_VALUE: spim_hyper_wait_cmdidle:i32TimeOutCnt <- [DW_OP_deref] $sp
	.loc	5 113 38                        @ ../../../../Library/StdDriver/src/spim_hyper.c:113:38
	movw	r1, :lower16:SystemCoreClock
	movt	r1, :upper16:SystemCoreClock
	ldr	r1, [r1]
	.loc	5 113 22 is_stmt 0              @ ../../../../Library/StdDriver/src/spim_hyper.c:113:22
	str	r1, [sp]
.Ltmp312:
.LBB8_1:                                @ =>This Inner Loop Header: Depth=1
	@DEBUG_VALUE: spim_hyper_wait_cmdidle:i32TimeOutCnt <- [DW_OP_deref] $sp
	@DEBUG_VALUE: spim_hyper_wait_cmdidle:spim <- $r0
	@DEBUG_VALUE: SPIM_HYPER_Write1Byte:u32Addr <- [DW_OP_LLVM_entry_value 1] $r1
	@DEBUG_VALUE: SPIM_HYPER_Write1Byte:spim <- $r0
	.loc	5 115 18 is_stmt 1              @ ../../../../Library/StdDriver/src/spim_hyper.c:115:18
	ldr.w	r1, [r0, #128]
	.loc	5 115 5 is_stmt 0               @ ../../../../Library/StdDriver/src/spim_hyper.c:115:5
	cbz	r1, .LBB8_10
.Ltmp313:
@ %bb.2:                                @   in Loop: Header=BB8_1 Depth=1
	@DEBUG_VALUE: spim_hyper_wait_cmdidle:i32TimeOutCnt <- [DW_OP_deref] $sp
	@DEBUG_VALUE: spim_hyper_wait_cmdidle:spim <- $r0
	@DEBUG_VALUE: SPIM_HYPER_Write1Byte:u32Addr <- [DW_OP_LLVM_entry_value 1] $r1
	@DEBUG_VALUE: SPIM_HYPER_Write1Byte:spim <- $r0
	.loc	5 117 13 is_stmt 1              @ ../../../../Library/StdDriver/src/spim_hyper.c:117:13
	ldr	r1, [sp]
	subs	r2, r1, #1
.Ltmp314:
	@DEBUG_VALUE: SPIM_HYPER_Write1Byte:u8Data <- [DW_OP_LLVM_entry_value 1] $r2
	.loc	5 117 13 is_stmt 0              @ ../../../../Library/StdDriver/src/spim_hyper.c:117:13
	cmp	r1, #2
.Ltmp315:
	@DEBUG_VALUE: spim_hyper_wait_cmdidle:i32TimeOutCnt <- [DW_OP_constu 1, DW_OP_minus, DW_OP_stack_value] undef
	.loc	5 117 13                        @ ../../../../Library/StdDriver/src/spim_hyper.c:117:13
	str	r2, [sp]
.Ltmp316:
	.loc	5 117 13                        @ ../../../../Library/StdDriver/src/spim_hyper.c:117:13
	blt	.LBB8_9
.Ltmp317:
@ %bb.3:                                @   in Loop: Header=BB8_1 Depth=1
	@DEBUG_VALUE: spim_hyper_wait_cmdidle:spim <- $r0
	@DEBUG_VALUE: SPIM_HYPER_Write1Byte:u32Addr <- [DW_OP_LLVM_entry_value 1] $r1
	@DEBUG_VALUE: SPIM_HYPER_Write1Byte:spim <- $r0
	.loc	5 115 18 is_stmt 1              @ ../../../../Library/StdDriver/src/spim_hyper.c:115:18
	ldr.w	r1, [r0, #128]
	.loc	5 115 5 is_stmt 0               @ ../../../../Library/StdDriver/src/spim_hyper.c:115:5
	cbz	r1, .LBB8_10
.Ltmp318:
@ %bb.4:                                @   in Loop: Header=BB8_1 Depth=1
	@DEBUG_VALUE: spim_hyper_wait_cmdidle:spim <- $r0
	@DEBUG_VALUE: SPIM_HYPER_Write1Byte:u32Addr <- [DW_OP_LLVM_entry_value 1] $r1
	@DEBUG_VALUE: SPIM_HYPER_Write1Byte:spim <- $r0
	.loc	5 117 13 is_stmt 1              @ ../../../../Library/StdDriver/src/spim_hyper.c:117:13
	ldr	r1, [sp]
	subs	r2, r1, #1
.Ltmp319:
	.loc	5 117 13 is_stmt 0              @ ../../../../Library/StdDriver/src/spim_hyper.c:117:13
	cmp	r1, #2
.Ltmp320:
	@DEBUG_VALUE: spim_hyper_wait_cmdidle:i32TimeOutCnt <- [DW_OP_constu 1, DW_OP_minus, DW_OP_stack_value] undef
	.loc	5 117 13                        @ ../../../../Library/StdDriver/src/spim_hyper.c:117:13
	str	r2, [sp]
.Ltmp321:
	.loc	5 117 13                        @ ../../../../Library/StdDriver/src/spim_hyper.c:117:13
	blt	.LBB8_9
.Ltmp322:
@ %bb.5:                                @   in Loop: Header=BB8_1 Depth=1
	@DEBUG_VALUE: spim_hyper_wait_cmdidle:spim <- $r0
	@DEBUG_VALUE: SPIM_HYPER_Write1Byte:u32Addr <- [DW_OP_LLVM_entry_value 1] $r1
	@DEBUG_VALUE: SPIM_HYPER_Write1Byte:spim <- $r0
	.loc	5 115 18 is_stmt 1              @ ../../../../Library/StdDriver/src/spim_hyper.c:115:18
	ldr.w	r1, [r0, #128]
	.loc	5 115 5 is_stmt 0               @ ../../../../Library/StdDriver/src/spim_hyper.c:115:5
	cbz	r1, .LBB8_10
.Ltmp323:
@ %bb.6:                                @   in Loop: Header=BB8_1 Depth=1
	@DEBUG_VALUE: spim_hyper_wait_cmdidle:spim <- $r0
	@DEBUG_VALUE: SPIM_HYPER_Write1Byte:u32Addr <- [DW_OP_LLVM_entry_value 1] $r1
	@DEBUG_VALUE: SPIM_HYPER_Write1Byte:spim <- $r0
	.loc	5 117 13 is_stmt 1              @ ../../../../Library/StdDriver/src/spim_hyper.c:117:13
	ldr	r1, [sp]
	subs	r2, r1, #1
.Ltmp324:
	.loc	5 117 13 is_stmt 0              @ ../../../../Library/StdDriver/src/spim_hyper.c:117:13
	cmp	r1, #2
.Ltmp325:
	@DEBUG_VALUE: spim_hyper_wait_cmdidle:i32TimeOutCnt <- [DW_OP_constu 1, DW_OP_minus, DW_OP_stack_value] undef
	.loc	5 117 13                        @ ../../../../Library/StdDriver/src/spim_hyper.c:117:13
	str	r2, [sp]
.Ltmp326:
	.loc	5 117 13                        @ ../../../../Library/StdDriver/src/spim_hyper.c:117:13
	blt	.LBB8_9
.Ltmp327:
@ %bb.7:                                @   in Loop: Header=BB8_1 Depth=1
	@DEBUG_VALUE: spim_hyper_wait_cmdidle:spim <- $r0
	@DEBUG_VALUE: SPIM_HYPER_Write1Byte:u32Addr <- [DW_OP_LLVM_entry_value 1] $r1
	@DEBUG_VALUE: SPIM_HYPER_Write1Byte:spim <- $r0
	.loc	5 115 18 is_stmt 1              @ ../../../../Library/StdDriver/src/spim_hyper.c:115:18
	ldr.w	r1, [r0, #128]
	.loc	5 115 5 is_stmt 0               @ ../../../../Library/StdDriver/src/spim_hyper.c:115:5
	cbz	r1, .LBB8_10
.Ltmp328:
@ %bb.8:                                @   in Loop: Header=BB8_1 Depth=1
	@DEBUG_VALUE: spim_hyper_wait_cmdidle:spim <- $r0
	@DEBUG_VALUE: SPIM_HYPER_Write1Byte:u32Addr <- [DW_OP_LLVM_entry_value 1] $r1
	@DEBUG_VALUE: SPIM_HYPER_Write1Byte:spim <- $r0
	.loc	5 117 13 is_stmt 1              @ ../../../../Library/StdDriver/src/spim_hyper.c:117:13
	ldr	r1, [sp]
	subs	r1, #1
	str	r1, [sp]
.Ltmp329:
	@DEBUG_VALUE: spim_hyper_wait_cmdidle:i32TimeOutCnt <- [DW_OP_deref] $sp
	.loc	5 117 13 is_stmt 0              @ ../../../../Library/StdDriver/src/spim_hyper.c:117:13
	bgt	.LBB8_1
.Ltmp330:
.LBB8_9:
	@DEBUG_VALUE: SPIM_HYPER_Write1Byte:u32Addr <- [DW_OP_LLVM_entry_value 1] $r1
	@DEBUG_VALUE: SPIM_HYPER_Write1Byte:spim <- $r0
	.loc	5 0 13                          @ ../../../../Library/StdDriver/src/spim_hyper.c:0:13
	mvn	r0, #1
.Ltmp331:
	@DEBUG_VALUE: SPIM_HYPER_Write1Byte:spim <- [DW_OP_LLVM_entry_value 1] $r0
	@DEBUG_VALUE: SPIM_HYPER_Write1Byte:spim <- [DW_OP_LLVM_entry_value 1] $r0
	.loc	5 395 5 epilogue_begin is_stmt 1 @ ../../../../Library/StdDriver/src/spim_hyper.c:395:5
	add	sp, #4
	bx	lr
.Ltmp332:
.LBB8_10:
	@DEBUG_VALUE: SPIM_HYPER_Write1Byte:u32Addr <- [DW_OP_LLVM_entry_value 1] $r1
	@DEBUG_VALUE: SPIM_HYPER_Write1Byte:spim <- $r0
	.loc	5 0 5 is_stmt 0                 @ ../../../../Library/StdDriver/src/spim_hyper.c:0:5
	movs	r0, #0
.Ltmp333:
	@DEBUG_VALUE: SPIM_HYPER_Write1Byte:spim <- [DW_OP_LLVM_entry_value 1] $r0
	.loc	5 395 5 epilogue_begin          @ ../../../../Library/StdDriver/src/spim_hyper.c:395:5
	add	sp, #4
	bx	lr
.Ltmp334:
.Lfunc_end8:
	.size	SPIM_HYPER_Write1Byte, .Lfunc_end8-SPIM_HYPER_Write1Byte
	.cfi_endproc
	.cantunwind
	.fnend
                                        @ -- End function
	.section	.text.SPIM_HYPER_Write2Byte,"ax",%progbits
	.hidden	SPIM_HYPER_Write2Byte           @ -- Begin function SPIM_HYPER_Write2Byte
	.globl	SPIM_HYPER_Write2Byte
	.p2align	2
	.type	SPIM_HYPER_Write2Byte,%function
	.code	16                              @ @SPIM_HYPER_Write2Byte
	.thumb_func
SPIM_HYPER_Write2Byte:
.Lfunc_begin9:
	.loc	5 408 0 is_stmt 1               @ ../../../../Library/StdDriver/src/spim_hyper.c:408:0
	.fnstart
	.cfi_startproc
@ %bb.0:
	@DEBUG_VALUE: SPIM_HYPER_Write2Byte:spim <- $r0
	@DEBUG_VALUE: SPIM_HYPER_Write2Byte:u32Addr <- $r1
	@DEBUG_VALUE: SPIM_HYPER_Write2Byte:u16Data <- $r2
	.pad	#4
	sub	sp, #4
	.cfi_def_cfa_offset 4
.Ltmp335:
	.loc	5 409 5 prologue_end            @ ../../../../Library/StdDriver/src/spim_hyper.c:409:5
	ldr.w	r3, [r0, #144]
	movs	r3, #0
	str.w	r3, [r0, #144]
	.loc	5 411 21                        @ ../../../../Library/StdDriver/src/spim_hyper.c:411:21
	str.w	r1, [r0, #140]
	movs	r1, #13
.Ltmp336:
	@DEBUG_VALUE: SPIM_HYPER_Write2Byte:u32Addr <- [DW_OP_LLVM_entry_value 1] $r1
	.loc	5 412 23                        @ ../../../../Library/StdDriver/src/spim_hyper.c:412:23
	str.w	r2, [r0, #144]
	.loc	5 414 21                        @ ../../../../Library/StdDriver/src/spim_hyper.c:414:21
	str.w	r1, [r0, #128]
.Ltmp337:
	@DEBUG_VALUE: spim_hyper_wait_cmdidle:spim <- $r0
	@DEBUG_VALUE: spim_hyper_wait_cmdidle:i32TimeOutCnt <- [DW_OP_deref] $sp
	.loc	5 113 38                        @ ../../../../Library/StdDriver/src/spim_hyper.c:113:38
	movw	r1, :lower16:SystemCoreClock
	movt	r1, :upper16:SystemCoreClock
	ldr	r1, [r1]
	.loc	5 113 22 is_stmt 0              @ ../../../../Library/StdDriver/src/spim_hyper.c:113:22
	str	r1, [sp]
.Ltmp338:
.LBB9_1:                                @ =>This Inner Loop Header: Depth=1
	@DEBUG_VALUE: spim_hyper_wait_cmdidle:i32TimeOutCnt <- [DW_OP_deref] $sp
	@DEBUG_VALUE: spim_hyper_wait_cmdidle:spim <- $r0
	@DEBUG_VALUE: SPIM_HYPER_Write2Byte:u32Addr <- [DW_OP_LLVM_entry_value 1] $r1
	@DEBUG_VALUE: SPIM_HYPER_Write2Byte:spim <- $r0
	.loc	5 115 18 is_stmt 1              @ ../../../../Library/StdDriver/src/spim_hyper.c:115:18
	ldr.w	r1, [r0, #128]
	.loc	5 115 5 is_stmt 0               @ ../../../../Library/StdDriver/src/spim_hyper.c:115:5
	cbz	r1, .LBB9_10
.Ltmp339:
@ %bb.2:                                @   in Loop: Header=BB9_1 Depth=1
	@DEBUG_VALUE: spim_hyper_wait_cmdidle:i32TimeOutCnt <- [DW_OP_deref] $sp
	@DEBUG_VALUE: spim_hyper_wait_cmdidle:spim <- $r0
	@DEBUG_VALUE: SPIM_HYPER_Write2Byte:u32Addr <- [DW_OP_LLVM_entry_value 1] $r1
	@DEBUG_VALUE: SPIM_HYPER_Write2Byte:spim <- $r0
	.loc	5 117 13 is_stmt 1              @ ../../../../Library/StdDriver/src/spim_hyper.c:117:13
	ldr	r1, [sp]
	subs	r2, r1, #1
.Ltmp340:
	@DEBUG_VALUE: SPIM_HYPER_Write2Byte:u16Data <- [DW_OP_LLVM_entry_value 1] $r2
	.loc	5 117 13 is_stmt 0              @ ../../../../Library/StdDriver/src/spim_hyper.c:117:13
	cmp	r1, #2
.Ltmp341:
	@DEBUG_VALUE: spim_hyper_wait_cmdidle:i32TimeOutCnt <- [DW_OP_constu 1, DW_OP_minus, DW_OP_stack_value] undef
	.loc	5 117 13                        @ ../../../../Library/StdDriver/src/spim_hyper.c:117:13
	str	r2, [sp]
.Ltmp342:
	.loc	5 117 13                        @ ../../../../Library/StdDriver/src/spim_hyper.c:117:13
	blt	.LBB9_9
.Ltmp343:
@ %bb.3:                                @   in Loop: Header=BB9_1 Depth=1
	@DEBUG_VALUE: spim_hyper_wait_cmdidle:spim <- $r0
	@DEBUG_VALUE: SPIM_HYPER_Write2Byte:u32Addr <- [DW_OP_LLVM_entry_value 1] $r1
	@DEBUG_VALUE: SPIM_HYPER_Write2Byte:spim <- $r0
	.loc	5 115 18 is_stmt 1              @ ../../../../Library/StdDriver/src/spim_hyper.c:115:18
	ldr.w	r1, [r0, #128]
	.loc	5 115 5 is_stmt 0               @ ../../../../Library/StdDriver/src/spim_hyper.c:115:5
	cbz	r1, .LBB9_10
.Ltmp344:
@ %bb.4:                                @   in Loop: Header=BB9_1 Depth=1
	@DEBUG_VALUE: spim_hyper_wait_cmdidle:spim <- $r0
	@DEBUG_VALUE: SPIM_HYPER_Write2Byte:u32Addr <- [DW_OP_LLVM_entry_value 1] $r1
	@DEBUG_VALUE: SPIM_HYPER_Write2Byte:spim <- $r0
	.loc	5 117 13 is_stmt 1              @ ../../../../Library/StdDriver/src/spim_hyper.c:117:13
	ldr	r1, [sp]
	subs	r2, r1, #1
.Ltmp345:
	.loc	5 117 13 is_stmt 0              @ ../../../../Library/StdDriver/src/spim_hyper.c:117:13
	cmp	r1, #2
.Ltmp346:
	@DEBUG_VALUE: spim_hyper_wait_cmdidle:i32TimeOutCnt <- [DW_OP_constu 1, DW_OP_minus, DW_OP_stack_value] undef
	.loc	5 117 13                        @ ../../../../Library/StdDriver/src/spim_hyper.c:117:13
	str	r2, [sp]
.Ltmp347:
	.loc	5 117 13                        @ ../../../../Library/StdDriver/src/spim_hyper.c:117:13
	blt	.LBB9_9
.Ltmp348:
@ %bb.5:                                @   in Loop: Header=BB9_1 Depth=1
	@DEBUG_VALUE: spim_hyper_wait_cmdidle:spim <- $r0
	@DEBUG_VALUE: SPIM_HYPER_Write2Byte:u32Addr <- [DW_OP_LLVM_entry_value 1] $r1
	@DEBUG_VALUE: SPIM_HYPER_Write2Byte:spim <- $r0
	.loc	5 115 18 is_stmt 1              @ ../../../../Library/StdDriver/src/spim_hyper.c:115:18
	ldr.w	r1, [r0, #128]
	.loc	5 115 5 is_stmt 0               @ ../../../../Library/StdDriver/src/spim_hyper.c:115:5
	cbz	r1, .LBB9_10
.Ltmp349:
@ %bb.6:                                @   in Loop: Header=BB9_1 Depth=1
	@DEBUG_VALUE: spim_hyper_wait_cmdidle:spim <- $r0
	@DEBUG_VALUE: SPIM_HYPER_Write2Byte:u32Addr <- [DW_OP_LLVM_entry_value 1] $r1
	@DEBUG_VALUE: SPIM_HYPER_Write2Byte:spim <- $r0
	.loc	5 117 13 is_stmt 1              @ ../../../../Library/StdDriver/src/spim_hyper.c:117:13
	ldr	r1, [sp]
	subs	r2, r1, #1
.Ltmp350:
	.loc	5 117 13 is_stmt 0              @ ../../../../Library/StdDriver/src/spim_hyper.c:117:13
	cmp	r1, #2
.Ltmp351:
	@DEBUG_VALUE: spim_hyper_wait_cmdidle:i32TimeOutCnt <- [DW_OP_constu 1, DW_OP_minus, DW_OP_stack_value] undef
	.loc	5 117 13                        @ ../../../../Library/StdDriver/src/spim_hyper.c:117:13
	str	r2, [sp]
.Ltmp352:
	.loc	5 117 13                        @ ../../../../Library/StdDriver/src/spim_hyper.c:117:13
	blt	.LBB9_9
.Ltmp353:
@ %bb.7:                                @   in Loop: Header=BB9_1 Depth=1
	@DEBUG_VALUE: spim_hyper_wait_cmdidle:spim <- $r0
	@DEBUG_VALUE: SPIM_HYPER_Write2Byte:u32Addr <- [DW_OP_LLVM_entry_value 1] $r1
	@DEBUG_VALUE: SPIM_HYPER_Write2Byte:spim <- $r0
	.loc	5 115 18 is_stmt 1              @ ../../../../Library/StdDriver/src/spim_hyper.c:115:18
	ldr.w	r1, [r0, #128]
	.loc	5 115 5 is_stmt 0               @ ../../../../Library/StdDriver/src/spim_hyper.c:115:5
	cbz	r1, .LBB9_10
.Ltmp354:
@ %bb.8:                                @   in Loop: Header=BB9_1 Depth=1
	@DEBUG_VALUE: spim_hyper_wait_cmdidle:spim <- $r0
	@DEBUG_VALUE: SPIM_HYPER_Write2Byte:u32Addr <- [DW_OP_LLVM_entry_value 1] $r1
	@DEBUG_VALUE: SPIM_HYPER_Write2Byte:spim <- $r0
	.loc	5 117 13 is_stmt 1              @ ../../../../Library/StdDriver/src/spim_hyper.c:117:13
	ldr	r1, [sp]
	subs	r1, #1
	str	r1, [sp]
.Ltmp355:
	@DEBUG_VALUE: spim_hyper_wait_cmdidle:i32TimeOutCnt <- [DW_OP_deref] $sp
	.loc	5 117 13 is_stmt 0              @ ../../../../Library/StdDriver/src/spim_hyper.c:117:13
	bgt	.LBB9_1
.Ltmp356:
.LBB9_9:
	@DEBUG_VALUE: SPIM_HYPER_Write2Byte:u32Addr <- [DW_OP_LLVM_entry_value 1] $r1
	@DEBUG_VALUE: SPIM_HYPER_Write2Byte:spim <- $r0
	.loc	5 0 13                          @ ../../../../Library/StdDriver/src/spim_hyper.c:0:13
	mvn	r0, #1
.Ltmp357:
	@DEBUG_VALUE: SPIM_HYPER_Write2Byte:spim <- [DW_OP_LLVM_entry_value 1] $r0
	@DEBUG_VALUE: SPIM_HYPER_Write2Byte:spim <- [DW_OP_LLVM_entry_value 1] $r0
	.loc	5 416 5 epilogue_begin is_stmt 1 @ ../../../../Library/StdDriver/src/spim_hyper.c:416:5
	add	sp, #4
	bx	lr
.Ltmp358:
.LBB9_10:
	@DEBUG_VALUE: SPIM_HYPER_Write2Byte:u32Addr <- [DW_OP_LLVM_entry_value 1] $r1
	@DEBUG_VALUE: SPIM_HYPER_Write2Byte:spim <- $r0
	.loc	5 0 5 is_stmt 0                 @ ../../../../Library/StdDriver/src/spim_hyper.c:0:5
	movs	r0, #0
.Ltmp359:
	@DEBUG_VALUE: SPIM_HYPER_Write2Byte:spim <- [DW_OP_LLVM_entry_value 1] $r0
	.loc	5 416 5 epilogue_begin          @ ../../../../Library/StdDriver/src/spim_hyper.c:416:5
	add	sp, #4
	bx	lr
.Ltmp360:
.Lfunc_end9:
	.size	SPIM_HYPER_Write2Byte, .Lfunc_end9-SPIM_HYPER_Write2Byte
	.cfi_endproc
	.cantunwind
	.fnend
                                        @ -- End function
	.section	.text.SPIM_HYPER_Write3Byte,"ax",%progbits
	.hidden	SPIM_HYPER_Write3Byte           @ -- Begin function SPIM_HYPER_Write3Byte
	.globl	SPIM_HYPER_Write3Byte
	.p2align	2
	.type	SPIM_HYPER_Write3Byte,%function
	.code	16                              @ @SPIM_HYPER_Write3Byte
	.thumb_func
SPIM_HYPER_Write3Byte:
.Lfunc_begin10:
	.loc	5 429 0 is_stmt 1               @ ../../../../Library/StdDriver/src/spim_hyper.c:429:0
	.fnstart
	.cfi_startproc
@ %bb.0:
	@DEBUG_VALUE: SPIM_HYPER_Write3Byte:spim <- $r0
	@DEBUG_VALUE: SPIM_HYPER_Write3Byte:u32Addr <- $r1
	@DEBUG_VALUE: SPIM_HYPER_Write3Byte:u32Data <- $r2
	.pad	#4
	sub	sp, #4
	.cfi_def_cfa_offset 4
.Ltmp361:
	.loc	5 430 5 prologue_end            @ ../../../../Library/StdDriver/src/spim_hyper.c:430:5
	ldr.w	r3, [r0, #144]
	movs	r3, #0
	str.w	r3, [r0, #144]
	.loc	5 432 21                        @ ../../../../Library/StdDriver/src/spim_hyper.c:432:21
	str.w	r1, [r0, #140]
	.loc	5 433 34                        @ ../../../../Library/StdDriver/src/spim_hyper.c:433:34
	bic	r1, r2, #-16777216
.Ltmp362:
	@DEBUG_VALUE: SPIM_HYPER_Write3Byte:u32Addr <- [DW_OP_LLVM_entry_value 1] $r1
	.loc	5 433 23 is_stmt 0              @ ../../../../Library/StdDriver/src/spim_hyper.c:433:23
	str.w	r1, [r0, #144]
	movs	r1, #14
	.loc	5 435 21 is_stmt 1              @ ../../../../Library/StdDriver/src/spim_hyper.c:435:21
	str.w	r1, [r0, #128]
.Ltmp363:
	@DEBUG_VALUE: spim_hyper_wait_cmdidle:spim <- $r0
	@DEBUG_VALUE: spim_hyper_wait_cmdidle:i32TimeOutCnt <- [DW_OP_deref] $sp
	.loc	5 113 38                        @ ../../../../Library/StdDriver/src/spim_hyper.c:113:38
	movw	r1, :lower16:SystemCoreClock
	movt	r1, :upper16:SystemCoreClock
	ldr	r1, [r1]
	.loc	5 113 22 is_stmt 0              @ ../../../../Library/StdDriver/src/spim_hyper.c:113:22
	str	r1, [sp]
.Ltmp364:
.LBB10_1:                               @ =>This Inner Loop Header: Depth=1
	@DEBUG_VALUE: spim_hyper_wait_cmdidle:i32TimeOutCnt <- [DW_OP_deref] $sp
	@DEBUG_VALUE: spim_hyper_wait_cmdidle:spim <- $r0
	@DEBUG_VALUE: SPIM_HYPER_Write3Byte:u32Addr <- [DW_OP_LLVM_entry_value 1] $r1
	@DEBUG_VALUE: SPIM_HYPER_Write3Byte:spim <- $r0
	.loc	5 115 18 is_stmt 1              @ ../../../../Library/StdDriver/src/spim_hyper.c:115:18
	ldr.w	r1, [r0, #128]
	.loc	5 115 5 is_stmt 0               @ ../../../../Library/StdDriver/src/spim_hyper.c:115:5
	cbz	r1, .LBB10_10
.Ltmp365:
@ %bb.2:                                @   in Loop: Header=BB10_1 Depth=1
	@DEBUG_VALUE: spim_hyper_wait_cmdidle:i32TimeOutCnt <- [DW_OP_deref] $sp
	@DEBUG_VALUE: spim_hyper_wait_cmdidle:spim <- $r0
	@DEBUG_VALUE: SPIM_HYPER_Write3Byte:u32Addr <- [DW_OP_LLVM_entry_value 1] $r1
	@DEBUG_VALUE: SPIM_HYPER_Write3Byte:spim <- $r0
	.loc	5 117 13 is_stmt 1              @ ../../../../Library/StdDriver/src/spim_hyper.c:117:13
	ldr	r1, [sp]
	subs	r2, r1, #1
.Ltmp366:
	@DEBUG_VALUE: SPIM_HYPER_Write3Byte:u32Data <- [DW_OP_LLVM_entry_value 1] $r2
	.loc	5 117 13 is_stmt 0              @ ../../../../Library/StdDriver/src/spim_hyper.c:117:13
	cmp	r1, #2
.Ltmp367:
	@DEBUG_VALUE: spim_hyper_wait_cmdidle:i32TimeOutCnt <- [DW_OP_constu 1, DW_OP_minus, DW_OP_stack_value] undef
	.loc	5 117 13                        @ ../../../../Library/StdDriver/src/spim_hyper.c:117:13
	str	r2, [sp]
.Ltmp368:
	.loc	5 117 13                        @ ../../../../Library/StdDriver/src/spim_hyper.c:117:13
	blt	.LBB10_9
.Ltmp369:
@ %bb.3:                                @   in Loop: Header=BB10_1 Depth=1
	@DEBUG_VALUE: spim_hyper_wait_cmdidle:spim <- $r0
	@DEBUG_VALUE: SPIM_HYPER_Write3Byte:u32Addr <- [DW_OP_LLVM_entry_value 1] $r1
	@DEBUG_VALUE: SPIM_HYPER_Write3Byte:spim <- $r0
	.loc	5 115 18 is_stmt 1              @ ../../../../Library/StdDriver/src/spim_hyper.c:115:18
	ldr.w	r1, [r0, #128]
	.loc	5 115 5 is_stmt 0               @ ../../../../Library/StdDriver/src/spim_hyper.c:115:5
	cbz	r1, .LBB10_10
.Ltmp370:
@ %bb.4:                                @   in Loop: Header=BB10_1 Depth=1
	@DEBUG_VALUE: spim_hyper_wait_cmdidle:spim <- $r0
	@DEBUG_VALUE: SPIM_HYPER_Write3Byte:u32Addr <- [DW_OP_LLVM_entry_value 1] $r1
	@DEBUG_VALUE: SPIM_HYPER_Write3Byte:spim <- $r0
	.loc	5 117 13 is_stmt 1              @ ../../../../Library/StdDriver/src/spim_hyper.c:117:13
	ldr	r1, [sp]
	subs	r2, r1, #1
.Ltmp371:
	.loc	5 117 13 is_stmt 0              @ ../../../../Library/StdDriver/src/spim_hyper.c:117:13
	cmp	r1, #2
.Ltmp372:
	@DEBUG_VALUE: spim_hyper_wait_cmdidle:i32TimeOutCnt <- [DW_OP_constu 1, DW_OP_minus, DW_OP_stack_value] undef
	.loc	5 117 13                        @ ../../../../Library/StdDriver/src/spim_hyper.c:117:13
	str	r2, [sp]
.Ltmp373:
	.loc	5 117 13                        @ ../../../../Library/StdDriver/src/spim_hyper.c:117:13
	blt	.LBB10_9
.Ltmp374:
@ %bb.5:                                @   in Loop: Header=BB10_1 Depth=1
	@DEBUG_VALUE: spim_hyper_wait_cmdidle:spim <- $r0
	@DEBUG_VALUE: SPIM_HYPER_Write3Byte:u32Addr <- [DW_OP_LLVM_entry_value 1] $r1
	@DEBUG_VALUE: SPIM_HYPER_Write3Byte:spim <- $r0
	.loc	5 115 18 is_stmt 1              @ ../../../../Library/StdDriver/src/spim_hyper.c:115:18
	ldr.w	r1, [r0, #128]
	.loc	5 115 5 is_stmt 0               @ ../../../../Library/StdDriver/src/spim_hyper.c:115:5
	cbz	r1, .LBB10_10
.Ltmp375:
@ %bb.6:                                @   in Loop: Header=BB10_1 Depth=1
	@DEBUG_VALUE: spim_hyper_wait_cmdidle:spim <- $r0
	@DEBUG_VALUE: SPIM_HYPER_Write3Byte:u32Addr <- [DW_OP_LLVM_entry_value 1] $r1
	@DEBUG_VALUE: SPIM_HYPER_Write3Byte:spim <- $r0
	.loc	5 117 13 is_stmt 1              @ ../../../../Library/StdDriver/src/spim_hyper.c:117:13
	ldr	r1, [sp]
	subs	r2, r1, #1
.Ltmp376:
	.loc	5 117 13 is_stmt 0              @ ../../../../Library/StdDriver/src/spim_hyper.c:117:13
	cmp	r1, #2
.Ltmp377:
	@DEBUG_VALUE: spim_hyper_wait_cmdidle:i32TimeOutCnt <- [DW_OP_constu 1, DW_OP_minus, DW_OP_stack_value] undef
	.loc	5 117 13                        @ ../../../../Library/StdDriver/src/spim_hyper.c:117:13
	str	r2, [sp]
.Ltmp378:
	.loc	5 117 13                        @ ../../../../Library/StdDriver/src/spim_hyper.c:117:13
	blt	.LBB10_9
.Ltmp379:
@ %bb.7:                                @   in Loop: Header=BB10_1 Depth=1
	@DEBUG_VALUE: spim_hyper_wait_cmdidle:spim <- $r0
	@DEBUG_VALUE: SPIM_HYPER_Write3Byte:u32Addr <- [DW_OP_LLVM_entry_value 1] $r1
	@DEBUG_VALUE: SPIM_HYPER_Write3Byte:spim <- $r0
	.loc	5 115 18 is_stmt 1              @ ../../../../Library/StdDriver/src/spim_hyper.c:115:18
	ldr.w	r1, [r0, #128]
	.loc	5 115 5 is_stmt 0               @ ../../../../Library/StdDriver/src/spim_hyper.c:115:5
	cbz	r1, .LBB10_10
.Ltmp380:
@ %bb.8:                                @   in Loop: Header=BB10_1 Depth=1
	@DEBUG_VALUE: spim_hyper_wait_cmdidle:spim <- $r0
	@DEBUG_VALUE: SPIM_HYPER_Write3Byte:u32Addr <- [DW_OP_LLVM_entry_value 1] $r1
	@DEBUG_VALUE: SPIM_HYPER_Write3Byte:spim <- $r0
	.loc	5 117 13 is_stmt 1              @ ../../../../Library/StdDriver/src/spim_hyper.c:117:13
	ldr	r1, [sp]
	subs	r1, #1
	str	r1, [sp]
.Ltmp381:
	@DEBUG_VALUE: spim_hyper_wait_cmdidle:i32TimeOutCnt <- [DW_OP_deref] $sp
	.loc	5 117 13 is_stmt 0              @ ../../../../Library/StdDriver/src/spim_hyper.c:117:13
	bgt	.LBB10_1
.Ltmp382:
.LBB10_9:
	@DEBUG_VALUE: SPIM_HYPER_Write3Byte:u32Addr <- [DW_OP_LLVM_entry_value 1] $r1
	@DEBUG_VALUE: SPIM_HYPER_Write3Byte:spim <- $r0
	.loc	5 0 13                          @ ../../../../Library/StdDriver/src/spim_hyper.c:0:13
	mvn	r0, #1
.Ltmp383:
	@DEBUG_VALUE: SPIM_HYPER_Write3Byte:spim <- [DW_OP_LLVM_entry_value 1] $r0
	@DEBUG_VALUE: SPIM_HYPER_Write3Byte:spim <- [DW_OP_LLVM_entry_value 1] $r0
	.loc	5 437 5 epilogue_begin is_stmt 1 @ ../../../../Library/StdDriver/src/spim_hyper.c:437:5
	add	sp, #4
	bx	lr
.Ltmp384:
.LBB10_10:
	@DEBUG_VALUE: SPIM_HYPER_Write3Byte:u32Addr <- [DW_OP_LLVM_entry_value 1] $r1
	@DEBUG_VALUE: SPIM_HYPER_Write3Byte:spim <- $r0
	.loc	5 0 5 is_stmt 0                 @ ../../../../Library/StdDriver/src/spim_hyper.c:0:5
	movs	r0, #0
.Ltmp385:
	@DEBUG_VALUE: SPIM_HYPER_Write3Byte:spim <- [DW_OP_LLVM_entry_value 1] $r0
	.loc	5 437 5 epilogue_begin          @ ../../../../Library/StdDriver/src/spim_hyper.c:437:5
	add	sp, #4
	bx	lr
.Ltmp386:
.Lfunc_end10:
	.size	SPIM_HYPER_Write3Byte, .Lfunc_end10-SPIM_HYPER_Write3Byte
	.cfi_endproc
	.cantunwind
	.fnend
                                        @ -- End function
	.section	.text.SPIM_HYPER_Write4Byte,"ax",%progbits
	.hidden	SPIM_HYPER_Write4Byte           @ -- Begin function SPIM_HYPER_Write4Byte
	.globl	SPIM_HYPER_Write4Byte
	.p2align	2
	.type	SPIM_HYPER_Write4Byte,%function
	.code	16                              @ @SPIM_HYPER_Write4Byte
	.thumb_func
SPIM_HYPER_Write4Byte:
.Lfunc_begin11:
	.loc	5 450 0 is_stmt 1               @ ../../../../Library/StdDriver/src/spim_hyper.c:450:0
	.fnstart
	.cfi_startproc
@ %bb.0:
	@DEBUG_VALUE: SPIM_HYPER_Write4Byte:spim <- $r0
	@DEBUG_VALUE: SPIM_HYPER_Write4Byte:u32Addr <- $r1
	@DEBUG_VALUE: SPIM_HYPER_Write4Byte:u32Data <- $r2
	.pad	#4
	sub	sp, #4
	.cfi_def_cfa_offset 4
.Ltmp387:
	.loc	5 451 5 prologue_end            @ ../../../../Library/StdDriver/src/spim_hyper.c:451:5
	ldr.w	r3, [r0, #144]
	movs	r3, #0
	str.w	r3, [r0, #144]
	.loc	5 453 21                        @ ../../../../Library/StdDriver/src/spim_hyper.c:453:21
	str.w	r1, [r0, #140]
	movs	r1, #15
.Ltmp388:
	@DEBUG_VALUE: SPIM_HYPER_Write4Byte:u32Addr <- [DW_OP_LLVM_entry_value 1] $r1
	.loc	5 454 23                        @ ../../../../Library/StdDriver/src/spim_hyper.c:454:23
	str.w	r2, [r0, #144]
	.loc	5 456 21                        @ ../../../../Library/StdDriver/src/spim_hyper.c:456:21
	str.w	r1, [r0, #128]
.Ltmp389:
	@DEBUG_VALUE: spim_hyper_wait_cmdidle:spim <- $r0
	@DEBUG_VALUE: spim_hyper_wait_cmdidle:i32TimeOutCnt <- [DW_OP_deref] $sp
	.loc	5 113 38                        @ ../../../../Library/StdDriver/src/spim_hyper.c:113:38
	movw	r1, :lower16:SystemCoreClock
	movt	r1, :upper16:SystemCoreClock
	ldr	r1, [r1]
	.loc	5 113 22 is_stmt 0              @ ../../../../Library/StdDriver/src/spim_hyper.c:113:22
	str	r1, [sp]
.Ltmp390:
.LBB11_1:                               @ =>This Inner Loop Header: Depth=1
	@DEBUG_VALUE: spim_hyper_wait_cmdidle:i32TimeOutCnt <- [DW_OP_deref] $sp
	@DEBUG_VALUE: spim_hyper_wait_cmdidle:spim <- $r0
	@DEBUG_VALUE: SPIM_HYPER_Write4Byte:u32Addr <- [DW_OP_LLVM_entry_value 1] $r1
	@DEBUG_VALUE: SPIM_HYPER_Write4Byte:spim <- $r0
	.loc	5 115 18 is_stmt 1              @ ../../../../Library/StdDriver/src/spim_hyper.c:115:18
	ldr.w	r1, [r0, #128]
	.loc	5 115 5 is_stmt 0               @ ../../../../Library/StdDriver/src/spim_hyper.c:115:5
	cbz	r1, .LBB11_10
.Ltmp391:
@ %bb.2:                                @   in Loop: Header=BB11_1 Depth=1
	@DEBUG_VALUE: spim_hyper_wait_cmdidle:i32TimeOutCnt <- [DW_OP_deref] $sp
	@DEBUG_VALUE: spim_hyper_wait_cmdidle:spim <- $r0
	@DEBUG_VALUE: SPIM_HYPER_Write4Byte:u32Addr <- [DW_OP_LLVM_entry_value 1] $r1
	@DEBUG_VALUE: SPIM_HYPER_Write4Byte:spim <- $r0
	.loc	5 117 13 is_stmt 1              @ ../../../../Library/StdDriver/src/spim_hyper.c:117:13
	ldr	r1, [sp]
	subs	r2, r1, #1
.Ltmp392:
	@DEBUG_VALUE: SPIM_HYPER_Write4Byte:u32Data <- [DW_OP_LLVM_entry_value 1] $r2
	.loc	5 117 13 is_stmt 0              @ ../../../../Library/StdDriver/src/spim_hyper.c:117:13
	cmp	r1, #2
.Ltmp393:
	@DEBUG_VALUE: spim_hyper_wait_cmdidle:i32TimeOutCnt <- [DW_OP_constu 1, DW_OP_minus, DW_OP_stack_value] undef
	.loc	5 117 13                        @ ../../../../Library/StdDriver/src/spim_hyper.c:117:13
	str	r2, [sp]
.Ltmp394:
	.loc	5 117 13                        @ ../../../../Library/StdDriver/src/spim_hyper.c:117:13
	blt	.LBB11_9
.Ltmp395:
@ %bb.3:                                @   in Loop: Header=BB11_1 Depth=1
	@DEBUG_VALUE: spim_hyper_wait_cmdidle:spim <- $r0
	@DEBUG_VALUE: SPIM_HYPER_Write4Byte:u32Addr <- [DW_OP_LLVM_entry_value 1] $r1
	@DEBUG_VALUE: SPIM_HYPER_Write4Byte:spim <- $r0
	.loc	5 115 18 is_stmt 1              @ ../../../../Library/StdDriver/src/spim_hyper.c:115:18
	ldr.w	r1, [r0, #128]
	.loc	5 115 5 is_stmt 0               @ ../../../../Library/StdDriver/src/spim_hyper.c:115:5
	cbz	r1, .LBB11_10
.Ltmp396:
@ %bb.4:                                @   in Loop: Header=BB11_1 Depth=1
	@DEBUG_VALUE: spim_hyper_wait_cmdidle:spim <- $r0
	@DEBUG_VALUE: SPIM_HYPER_Write4Byte:u32Addr <- [DW_OP_LLVM_entry_value 1] $r1
	@DEBUG_VALUE: SPIM_HYPER_Write4Byte:spim <- $r0
	.loc	5 117 13 is_stmt 1              @ ../../../../Library/StdDriver/src/spim_hyper.c:117:13
	ldr	r1, [sp]
	subs	r2, r1, #1
.Ltmp397:
	.loc	5 117 13 is_stmt 0              @ ../../../../Library/StdDriver/src/spim_hyper.c:117:13
	cmp	r1, #2
.Ltmp398:
	@DEBUG_VALUE: spim_hyper_wait_cmdidle:i32TimeOutCnt <- [DW_OP_constu 1, DW_OP_minus, DW_OP_stack_value] undef
	.loc	5 117 13                        @ ../../../../Library/StdDriver/src/spim_hyper.c:117:13
	str	r2, [sp]
.Ltmp399:
	.loc	5 117 13                        @ ../../../../Library/StdDriver/src/spim_hyper.c:117:13
	blt	.LBB11_9
.Ltmp400:
@ %bb.5:                                @   in Loop: Header=BB11_1 Depth=1
	@DEBUG_VALUE: spim_hyper_wait_cmdidle:spim <- $r0
	@DEBUG_VALUE: SPIM_HYPER_Write4Byte:u32Addr <- [DW_OP_LLVM_entry_value 1] $r1
	@DEBUG_VALUE: SPIM_HYPER_Write4Byte:spim <- $r0
	.loc	5 115 18 is_stmt 1              @ ../../../../Library/StdDriver/src/spim_hyper.c:115:18
	ldr.w	r1, [r0, #128]
	.loc	5 115 5 is_stmt 0               @ ../../../../Library/StdDriver/src/spim_hyper.c:115:5
	cbz	r1, .LBB11_10
.Ltmp401:
@ %bb.6:                                @   in Loop: Header=BB11_1 Depth=1
	@DEBUG_VALUE: spim_hyper_wait_cmdidle:spim <- $r0
	@DEBUG_VALUE: SPIM_HYPER_Write4Byte:u32Addr <- [DW_OP_LLVM_entry_value 1] $r1
	@DEBUG_VALUE: SPIM_HYPER_Write4Byte:spim <- $r0
	.loc	5 117 13 is_stmt 1              @ ../../../../Library/StdDriver/src/spim_hyper.c:117:13
	ldr	r1, [sp]
	subs	r2, r1, #1
.Ltmp402:
	.loc	5 117 13 is_stmt 0              @ ../../../../Library/StdDriver/src/spim_hyper.c:117:13
	cmp	r1, #2
.Ltmp403:
	@DEBUG_VALUE: spim_hyper_wait_cmdidle:i32TimeOutCnt <- [DW_OP_constu 1, DW_OP_minus, DW_OP_stack_value] undef
	.loc	5 117 13                        @ ../../../../Library/StdDriver/src/spim_hyper.c:117:13
	str	r2, [sp]
.Ltmp404:
	.loc	5 117 13                        @ ../../../../Library/StdDriver/src/spim_hyper.c:117:13
	blt	.LBB11_9
.Ltmp405:
@ %bb.7:                                @   in Loop: Header=BB11_1 Depth=1
	@DEBUG_VALUE: spim_hyper_wait_cmdidle:spim <- $r0
	@DEBUG_VALUE: SPIM_HYPER_Write4Byte:u32Addr <- [DW_OP_LLVM_entry_value 1] $r1
	@DEBUG_VALUE: SPIM_HYPER_Write4Byte:spim <- $r0
	.loc	5 115 18 is_stmt 1              @ ../../../../Library/StdDriver/src/spim_hyper.c:115:18
	ldr.w	r1, [r0, #128]
	.loc	5 115 5 is_stmt 0               @ ../../../../Library/StdDriver/src/spim_hyper.c:115:5
	cbz	r1, .LBB11_10
.Ltmp406:
@ %bb.8:                                @   in Loop: Header=BB11_1 Depth=1
	@DEBUG_VALUE: spim_hyper_wait_cmdidle:spim <- $r0
	@DEBUG_VALUE: SPIM_HYPER_Write4Byte:u32Addr <- [DW_OP_LLVM_entry_value 1] $r1
	@DEBUG_VALUE: SPIM_HYPER_Write4Byte:spim <- $r0
	.loc	5 117 13 is_stmt 1              @ ../../../../Library/StdDriver/src/spim_hyper.c:117:13
	ldr	r1, [sp]
	subs	r1, #1
	str	r1, [sp]
.Ltmp407:
	@DEBUG_VALUE: spim_hyper_wait_cmdidle:i32TimeOutCnt <- [DW_OP_deref] $sp
	.loc	5 117 13 is_stmt 0              @ ../../../../Library/StdDriver/src/spim_hyper.c:117:13
	bgt	.LBB11_1
.Ltmp408:
.LBB11_9:
	@DEBUG_VALUE: SPIM_HYPER_Write4Byte:u32Addr <- [DW_OP_LLVM_entry_value 1] $r1
	@DEBUG_VALUE: SPIM_HYPER_Write4Byte:spim <- $r0
	.loc	5 0 13                          @ ../../../../Library/StdDriver/src/spim_hyper.c:0:13
	mvn	r0, #1
.Ltmp409:
	@DEBUG_VALUE: SPIM_HYPER_Write4Byte:spim <- [DW_OP_LLVM_entry_value 1] $r0
	@DEBUG_VALUE: SPIM_HYPER_Write4Byte:spim <- [DW_OP_LLVM_entry_value 1] $r0
	.loc	5 458 5 epilogue_begin is_stmt 1 @ ../../../../Library/StdDriver/src/spim_hyper.c:458:5
	add	sp, #4
	bx	lr
.Ltmp410:
.LBB11_10:
	@DEBUG_VALUE: SPIM_HYPER_Write4Byte:u32Addr <- [DW_OP_LLVM_entry_value 1] $r1
	@DEBUG_VALUE: SPIM_HYPER_Write4Byte:spim <- $r0
	.loc	5 0 5 is_stmt 0                 @ ../../../../Library/StdDriver/src/spim_hyper.c:0:5
	movs	r0, #0
.Ltmp411:
	@DEBUG_VALUE: SPIM_HYPER_Write4Byte:spim <- [DW_OP_LLVM_entry_value 1] $r0
	.loc	5 458 5 epilogue_begin          @ ../../../../Library/StdDriver/src/spim_hyper.c:458:5
	add	sp, #4
	bx	lr
.Ltmp412:
.Lfunc_end11:
	.size	SPIM_HYPER_Write4Byte, .Lfunc_end11-SPIM_HYPER_Write4Byte
	.cfi_endproc
	.cantunwind
	.fnend
                                        @ -- End function
	.section	.text.SPIM_HYPER_DMAWrite,"ax",%progbits
	.hidden	SPIM_HYPER_DMAWrite             @ -- Begin function SPIM_HYPER_DMAWrite
	.globl	SPIM_HYPER_DMAWrite
	.p2align	2
	.type	SPIM_HYPER_DMAWrite,%function
	.code	16                              @ @SPIM_HYPER_DMAWrite
	.thumb_func
SPIM_HYPER_DMAWrite:
.Lfunc_begin12:
	.loc	5 473 0 is_stmt 1               @ ../../../../Library/StdDriver/src/spim_hyper.c:473:0
	.fnstart
	.cfi_startproc
@ %bb.0:
	@DEBUG_VALUE: SPIM_HYPER_DMAWrite:spim <- $r0
	@DEBUG_VALUE: SPIM_HYPER_DMAWrite:u32Addr <- $r1
	@DEBUG_VALUE: SPIM_HYPER_DMAWrite:pu8WrBuf <- $r2
	@DEBUG_VALUE: SPIM_HYPER_DMAWrite:u32NTx <- $r3
	.save	{r4, r5, r7, lr}
	push	{r4, r5, r7, lr}
	.cfi_def_cfa_offset 16
	.cfi_offset lr, -4
	.cfi_offset r7, -8
	.cfi_offset r5, -12
	.cfi_offset r4, -16
	.pad	#8
	sub	sp, #8
	.cfi_def_cfa_offset 24
.Ltmp413:
	.loc	7 642 40 prologue_end           @ ../../../../Library/StdDriver/inc\spim_hyper.h:642:40
	movw	r12, :lower16:SystemCoreClock
	movt	r12, :upper16:SystemCoreClock
	ldr.w	lr, [r12]
.Ltmp414:
	@DEBUG_VALUE: SPIM_HYPER_WAIT_DMMDONE:spim <- $r0
	@DEBUG_VALUE: SPIM_HYPER_WAIT_DMMDONE:u32TimeOutCount <- [DW_OP_deref] $sp
	@DEBUG_VALUE: SPIM_HYPER_SET_OPMODE:x <- 1
	@DEBUG_VALUE: SPIM_HYPER_SET_OPMODE:spim <- $r0
	.loc	7 642 22 is_stmt 0              @ ../../../../Library/StdDriver/inc\spim_hyper.h:642:22
	str.w	lr, [sp]
	.loc	7 644 5 is_stmt 1               @ ../../../../Library/StdDriver/inc\spim_hyper.h:644:5
	ldr	r4, [r0, #68]
	orr	r4, r4, #134217728
	str	r4, [r0, #68]
.Ltmp415:
.LBB12_1:                               @ =>This Inner Loop Header: Depth=1
	@DEBUG_VALUE: SPIM_HYPER_SET_OPMODE:spim <- $r0
	@DEBUG_VALUE: SPIM_HYPER_SET_OPMODE:x <- 1
	@DEBUG_VALUE: SPIM_HYPER_WAIT_DMMDONE:u32TimeOutCount <- [DW_OP_deref] $sp
	@DEBUG_VALUE: SPIM_HYPER_WAIT_DMMDONE:spim <- $r0
	@DEBUG_VALUE: SPIM_HYPER_DMAWrite:u32NTx <- $r3
	@DEBUG_VALUE: SPIM_HYPER_DMAWrite:pu8WrBuf <- $r2
	@DEBUG_VALUE: SPIM_HYPER_DMAWrite:u32Addr <- $r1
	@DEBUG_VALUE: SPIM_HYPER_DMAWrite:spim <- $r0
	.loc	7 646 12                        @ ../../../../Library/StdDriver/inc\spim_hyper.h:646:12
	ldr	r4, [r0, #68]
	.loc	7 646 5 is_stmt 0               @ ../../../../Library/StdDriver/inc\spim_hyper.h:646:5
	lsls	r4, r4, #4
	bpl	.LBB12_9
.Ltmp416:
@ %bb.2:                                @   in Loop: Header=BB12_1 Depth=1
	@DEBUG_VALUE: SPIM_HYPER_SET_OPMODE:spim <- $r0
	@DEBUG_VALUE: SPIM_HYPER_SET_OPMODE:x <- 1
	@DEBUG_VALUE: SPIM_HYPER_WAIT_DMMDONE:u32TimeOutCount <- [DW_OP_deref] $sp
	@DEBUG_VALUE: SPIM_HYPER_WAIT_DMMDONE:spim <- $r0
	@DEBUG_VALUE: SPIM_HYPER_DMAWrite:u32NTx <- $r3
	@DEBUG_VALUE: SPIM_HYPER_DMAWrite:pu8WrBuf <- $r2
	@DEBUG_VALUE: SPIM_HYPER_DMAWrite:u32Addr <- $r1
	@DEBUG_VALUE: SPIM_HYPER_DMAWrite:spim <- $r0
	.loc	7 648 13 is_stmt 1              @ ../../../../Library/StdDriver/inc\spim_hyper.h:648:13
	ldr	r4, [sp]
	subs	r5, r4, #1
.Ltmp417:
	.loc	7 648 13 is_stmt 0              @ ../../../../Library/StdDriver/inc\spim_hyper.h:648:13
	cmp	r4, #2
.Ltmp418:
	@DEBUG_VALUE: SPIM_HYPER_WAIT_DMMDONE:u32TimeOutCount <- [DW_OP_constu 1, DW_OP_minus, DW_OP_stack_value] undef
	.loc	7 648 13                        @ ../../../../Library/StdDriver/inc\spim_hyper.h:648:13
	str	r5, [sp]
.Ltmp419:
	.loc	7 648 13                        @ ../../../../Library/StdDriver/inc\spim_hyper.h:648:13
	blt	.LBB12_9
.Ltmp420:
@ %bb.3:                                @   in Loop: Header=BB12_1 Depth=1
	@DEBUG_VALUE: SPIM_HYPER_SET_OPMODE:spim <- $r0
	@DEBUG_VALUE: SPIM_HYPER_SET_OPMODE:x <- 1
	@DEBUG_VALUE: SPIM_HYPER_WAIT_DMMDONE:spim <- $r0
	@DEBUG_VALUE: SPIM_HYPER_DMAWrite:u32NTx <- $r3
	@DEBUG_VALUE: SPIM_HYPER_DMAWrite:pu8WrBuf <- $r2
	@DEBUG_VALUE: SPIM_HYPER_DMAWrite:u32Addr <- $r1
	@DEBUG_VALUE: SPIM_HYPER_DMAWrite:spim <- $r0
	.loc	7 646 12 is_stmt 1              @ ../../../../Library/StdDriver/inc\spim_hyper.h:646:12
	ldr	r4, [r0, #68]
	.loc	7 646 5 is_stmt 0               @ ../../../../Library/StdDriver/inc\spim_hyper.h:646:5
	lsls	r4, r4, #4
	bpl	.LBB12_9
.Ltmp421:
@ %bb.4:                                @   in Loop: Header=BB12_1 Depth=1
	@DEBUG_VALUE: SPIM_HYPER_SET_OPMODE:spim <- $r0
	@DEBUG_VALUE: SPIM_HYPER_SET_OPMODE:x <- 1
	@DEBUG_VALUE: SPIM_HYPER_WAIT_DMMDONE:spim <- $r0
	@DEBUG_VALUE: SPIM_HYPER_DMAWrite:u32NTx <- $r3
	@DEBUG_VALUE: SPIM_HYPER_DMAWrite:pu8WrBuf <- $r2
	@DEBUG_VALUE: SPIM_HYPER_DMAWrite:u32Addr <- $r1
	@DEBUG_VALUE: SPIM_HYPER_DMAWrite:spim <- $r0
	.loc	7 648 13 is_stmt 1              @ ../../../../Library/StdDriver/inc\spim_hyper.h:648:13
	ldr	r4, [sp]
	subs	r5, r4, #1
.Ltmp422:
	.loc	7 648 13 is_stmt 0              @ ../../../../Library/StdDriver/inc\spim_hyper.h:648:13
	cmp	r4, #2
.Ltmp423:
	@DEBUG_VALUE: SPIM_HYPER_WAIT_DMMDONE:u32TimeOutCount <- [DW_OP_constu 1, DW_OP_minus, DW_OP_stack_value] undef
	.loc	7 648 13                        @ ../../../../Library/StdDriver/inc\spim_hyper.h:648:13
	str	r5, [sp]
.Ltmp424:
	.loc	7 648 13                        @ ../../../../Library/StdDriver/inc\spim_hyper.h:648:13
	blt	.LBB12_9
.Ltmp425:
@ %bb.5:                                @   in Loop: Header=BB12_1 Depth=1
	@DEBUG_VALUE: SPIM_HYPER_SET_OPMODE:spim <- $r0
	@DEBUG_VALUE: SPIM_HYPER_SET_OPMODE:x <- 1
	@DEBUG_VALUE: SPIM_HYPER_WAIT_DMMDONE:spim <- $r0
	@DEBUG_VALUE: SPIM_HYPER_DMAWrite:u32NTx <- $r3
	@DEBUG_VALUE: SPIM_HYPER_DMAWrite:pu8WrBuf <- $r2
	@DEBUG_VALUE: SPIM_HYPER_DMAWrite:u32Addr <- $r1
	@DEBUG_VALUE: SPIM_HYPER_DMAWrite:spim <- $r0
	.loc	7 646 12 is_stmt 1              @ ../../../../Library/StdDriver/inc\spim_hyper.h:646:12
	ldr	r4, [r0, #68]
	.loc	7 646 5 is_stmt 0               @ ../../../../Library/StdDriver/inc\spim_hyper.h:646:5
	lsls	r4, r4, #4
	bpl	.LBB12_9
.Ltmp426:
@ %bb.6:                                @   in Loop: Header=BB12_1 Depth=1
	@DEBUG_VALUE: SPIM_HYPER_SET_OPMODE:spim <- $r0
	@DEBUG_VALUE: SPIM_HYPER_SET_OPMODE:x <- 1
	@DEBUG_VALUE: SPIM_HYPER_WAIT_DMMDONE:spim <- $r0
	@DEBUG_VALUE: SPIM_HYPER_DMAWrite:u32NTx <- $r3
	@DEBUG_VALUE: SPIM_HYPER_DMAWrite:pu8WrBuf <- $r2
	@DEBUG_VALUE: SPIM_HYPER_DMAWrite:u32Addr <- $r1
	@DEBUG_VALUE: SPIM_HYPER_DMAWrite:spim <- $r0
	.loc	7 648 13 is_stmt 1              @ ../../../../Library/StdDriver/inc\spim_hyper.h:648:13
	ldr	r4, [sp]
	subs	r5, r4, #1
.Ltmp427:
	.loc	7 648 13 is_stmt 0              @ ../../../../Library/StdDriver/inc\spim_hyper.h:648:13
	cmp	r4, #2
.Ltmp428:
	@DEBUG_VALUE: SPIM_HYPER_WAIT_DMMDONE:u32TimeOutCount <- [DW_OP_constu 1, DW_OP_minus, DW_OP_stack_value] undef
	.loc	7 648 13                        @ ../../../../Library/StdDriver/inc\spim_hyper.h:648:13
	str	r5, [sp]
.Ltmp429:
	.loc	7 648 13                        @ ../../../../Library/StdDriver/inc\spim_hyper.h:648:13
	blt	.LBB12_9
.Ltmp430:
@ %bb.7:                                @   in Loop: Header=BB12_1 Depth=1
	@DEBUG_VALUE: SPIM_HYPER_SET_OPMODE:spim <- $r0
	@DEBUG_VALUE: SPIM_HYPER_SET_OPMODE:x <- 1
	@DEBUG_VALUE: SPIM_HYPER_WAIT_DMMDONE:spim <- $r0
	@DEBUG_VALUE: SPIM_HYPER_DMAWrite:u32NTx <- $r3
	@DEBUG_VALUE: SPIM_HYPER_DMAWrite:pu8WrBuf <- $r2
	@DEBUG_VALUE: SPIM_HYPER_DMAWrite:u32Addr <- $r1
	@DEBUG_VALUE: SPIM_HYPER_DMAWrite:spim <- $r0
	.loc	7 646 12 is_stmt 1              @ ../../../../Library/StdDriver/inc\spim_hyper.h:646:12
	ldr	r4, [r0, #68]
	.loc	7 646 5 is_stmt 0               @ ../../../../Library/StdDriver/inc\spim_hyper.h:646:5
	lsls	r4, r4, #4
	bpl	.LBB12_9
.Ltmp431:
@ %bb.8:                                @   in Loop: Header=BB12_1 Depth=1
	@DEBUG_VALUE: SPIM_HYPER_SET_OPMODE:spim <- $r0
	@DEBUG_VALUE: SPIM_HYPER_SET_OPMODE:x <- 1
	@DEBUG_VALUE: SPIM_HYPER_WAIT_DMMDONE:spim <- $r0
	@DEBUG_VALUE: SPIM_HYPER_DMAWrite:u32NTx <- $r3
	@DEBUG_VALUE: SPIM_HYPER_DMAWrite:pu8WrBuf <- $r2
	@DEBUG_VALUE: SPIM_HYPER_DMAWrite:u32Addr <- $r1
	@DEBUG_VALUE: SPIM_HYPER_DMAWrite:spim <- $r0
	.loc	7 648 13 is_stmt 1              @ ../../../../Library/StdDriver/inc\spim_hyper.h:648:13
	ldr	r4, [sp]
	subs	r4, #1
	str	r4, [sp]
.Ltmp432:
	@DEBUG_VALUE: SPIM_HYPER_WAIT_DMMDONE:u32TimeOutCount <- [DW_OP_deref] $sp
	.loc	7 648 13 is_stmt 0              @ ../../../../Library/StdDriver/inc\spim_hyper.h:648:13
	bgt	.LBB12_1
.Ltmp433:
.LBB12_9:
	@DEBUG_VALUE: SPIM_HYPER_SET_OPMODE:spim <- $r0
	@DEBUG_VALUE: SPIM_HYPER_SET_OPMODE:x <- 1
	@DEBUG_VALUE: SPIM_HYPER_WAIT_DMMDONE:spim <- $r0
	@DEBUG_VALUE: SPIM_HYPER_DMAWrite:u32NTx <- $r3
	@DEBUG_VALUE: SPIM_HYPER_DMAWrite:pu8WrBuf <- $r2
	@DEBUG_VALUE: SPIM_HYPER_DMAWrite:u32Addr <- $r1
	@DEBUG_VALUE: SPIM_HYPER_DMAWrite:spim <- $r0
	.loc	7 654 21 is_stmt 1              @ ../../../../Library/StdDriver/inc\spim_hyper.h:654:21
	str.w	lr, [sp]
.Ltmp434:
	@DEBUG_VALUE: SPIM_HYPER_WAIT_DMMDONE:u32TimeOutCount <- [DW_OP_deref] $sp
.LBB12_10:                              @ =>This Inner Loop Header: Depth=1
	@DEBUG_VALUE: SPIM_HYPER_SET_OPMODE:spim <- $r0
	@DEBUG_VALUE: SPIM_HYPER_SET_OPMODE:x <- 1
	@DEBUG_VALUE: SPIM_HYPER_WAIT_DMMDONE:u32TimeOutCount <- [DW_OP_deref] $sp
	@DEBUG_VALUE: SPIM_HYPER_WAIT_DMMDONE:spim <- $r0
	@DEBUG_VALUE: SPIM_HYPER_DMAWrite:u32NTx <- $r3
	@DEBUG_VALUE: SPIM_HYPER_DMAWrite:pu8WrBuf <- $r2
	@DEBUG_VALUE: SPIM_HYPER_DMAWrite:u32Addr <- $r1
	@DEBUG_VALUE: SPIM_HYPER_DMAWrite:spim <- $r0
	.loc	7 657 12                        @ ../../../../Library/StdDriver/inc\spim_hyper.h:657:12
	ldr	r5, [r0, #68]
	.loc	7 657 5 is_stmt 0               @ ../../../../Library/StdDriver/inc\spim_hyper.h:657:5
	cmp	r5, #0
	bmi	.LBB12_18
.Ltmp435:
@ %bb.11:                               @   in Loop: Header=BB12_10 Depth=1
	@DEBUG_VALUE: SPIM_HYPER_SET_OPMODE:spim <- $r0
	@DEBUG_VALUE: SPIM_HYPER_SET_OPMODE:x <- 1
	@DEBUG_VALUE: SPIM_HYPER_WAIT_DMMDONE:u32TimeOutCount <- [DW_OP_deref] $sp
	@DEBUG_VALUE: SPIM_HYPER_WAIT_DMMDONE:spim <- $r0
	@DEBUG_VALUE: SPIM_HYPER_DMAWrite:u32NTx <- $r3
	@DEBUG_VALUE: SPIM_HYPER_DMAWrite:pu8WrBuf <- $r2
	@DEBUG_VALUE: SPIM_HYPER_DMAWrite:u32Addr <- $r1
	@DEBUG_VALUE: SPIM_HYPER_DMAWrite:spim <- $r0
	.loc	7 659 13 is_stmt 1              @ ../../../../Library/StdDriver/inc\spim_hyper.h:659:13
	ldr	r5, [sp]
	subs	r4, r5, #1
.Ltmp436:
	.loc	7 659 13 is_stmt 0              @ ../../../../Library/StdDriver/inc\spim_hyper.h:659:13
	cmp	r5, #2
.Ltmp437:
	@DEBUG_VALUE: SPIM_HYPER_WAIT_DMMDONE:u32TimeOutCount <- [DW_OP_constu 1, DW_OP_minus, DW_OP_stack_value] undef
	.loc	7 659 13                        @ ../../../../Library/StdDriver/inc\spim_hyper.h:659:13
	str	r4, [sp]
.Ltmp438:
	.loc	7 659 13                        @ ../../../../Library/StdDriver/inc\spim_hyper.h:659:13
	blt	.LBB12_18
.Ltmp439:
@ %bb.12:                               @   in Loop: Header=BB12_10 Depth=1
	@DEBUG_VALUE: SPIM_HYPER_SET_OPMODE:spim <- $r0
	@DEBUG_VALUE: SPIM_HYPER_SET_OPMODE:x <- 1
	@DEBUG_VALUE: SPIM_HYPER_WAIT_DMMDONE:spim <- $r0
	@DEBUG_VALUE: SPIM_HYPER_DMAWrite:u32NTx <- $r3
	@DEBUG_VALUE: SPIM_HYPER_DMAWrite:pu8WrBuf <- $r2
	@DEBUG_VALUE: SPIM_HYPER_DMAWrite:u32Addr <- $r1
	@DEBUG_VALUE: SPIM_HYPER_DMAWrite:spim <- $r0
	.loc	7 657 12 is_stmt 1              @ ../../../../Library/StdDriver/inc\spim_hyper.h:657:12
	ldr	r5, [r0, #68]
	.loc	7 657 5 is_stmt 0               @ ../../../../Library/StdDriver/inc\spim_hyper.h:657:5
	cmp	r5, #0
	bmi	.LBB12_18
.Ltmp440:
@ %bb.13:                               @   in Loop: Header=BB12_10 Depth=1
	@DEBUG_VALUE: SPIM_HYPER_SET_OPMODE:spim <- $r0
	@DEBUG_VALUE: SPIM_HYPER_SET_OPMODE:x <- 1
	@DEBUG_VALUE: SPIM_HYPER_WAIT_DMMDONE:spim <- $r0
	@DEBUG_VALUE: SPIM_HYPER_DMAWrite:u32NTx <- $r3
	@DEBUG_VALUE: SPIM_HYPER_DMAWrite:pu8WrBuf <- $r2
	@DEBUG_VALUE: SPIM_HYPER_DMAWrite:u32Addr <- $r1
	@DEBUG_VALUE: SPIM_HYPER_DMAWrite:spim <- $r0
	.loc	7 659 13 is_stmt 1              @ ../../../../Library/StdDriver/inc\spim_hyper.h:659:13
	ldr	r5, [sp]
	subs	r4, r5, #1
.Ltmp441:
	.loc	7 659 13 is_stmt 0              @ ../../../../Library/StdDriver/inc\spim_hyper.h:659:13
	cmp	r5, #2
.Ltmp442:
	@DEBUG_VALUE: SPIM_HYPER_WAIT_DMMDONE:u32TimeOutCount <- [DW_OP_constu 1, DW_OP_minus, DW_OP_stack_value] undef
	.loc	7 659 13                        @ ../../../../Library/StdDriver/inc\spim_hyper.h:659:13
	str	r4, [sp]
.Ltmp443:
	.loc	7 659 13                        @ ../../../../Library/StdDriver/inc\spim_hyper.h:659:13
	blt	.LBB12_18
.Ltmp444:
@ %bb.14:                               @   in Loop: Header=BB12_10 Depth=1
	@DEBUG_VALUE: SPIM_HYPER_SET_OPMODE:spim <- $r0
	@DEBUG_VALUE: SPIM_HYPER_SET_OPMODE:x <- 1
	@DEBUG_VALUE: SPIM_HYPER_WAIT_DMMDONE:spim <- $r0
	@DEBUG_VALUE: SPIM_HYPER_DMAWrite:u32NTx <- $r3
	@DEBUG_VALUE: SPIM_HYPER_DMAWrite:pu8WrBuf <- $r2
	@DEBUG_VALUE: SPIM_HYPER_DMAWrite:u32Addr <- $r1
	@DEBUG_VALUE: SPIM_HYPER_DMAWrite:spim <- $r0
	.loc	7 657 12 is_stmt 1              @ ../../../../Library/StdDriver/inc\spim_hyper.h:657:12
	ldr	r5, [r0, #68]
	.loc	7 657 5 is_stmt 0               @ ../../../../Library/StdDriver/inc\spim_hyper.h:657:5
	cmp	r5, #0
	bmi	.LBB12_18
.Ltmp445:
@ %bb.15:                               @   in Loop: Header=BB12_10 Depth=1
	@DEBUG_VALUE: SPIM_HYPER_SET_OPMODE:spim <- $r0
	@DEBUG_VALUE: SPIM_HYPER_SET_OPMODE:x <- 1
	@DEBUG_VALUE: SPIM_HYPER_WAIT_DMMDONE:spim <- $r0
	@DEBUG_VALUE: SPIM_HYPER_DMAWrite:u32NTx <- $r3
	@DEBUG_VALUE: SPIM_HYPER_DMAWrite:pu8WrBuf <- $r2
	@DEBUG_VALUE: SPIM_HYPER_DMAWrite:u32Addr <- $r1
	@DEBUG_VALUE: SPIM_HYPER_DMAWrite:spim <- $r0
	.loc	7 659 13 is_stmt 1              @ ../../../../Library/StdDriver/inc\spim_hyper.h:659:13
	ldr	r5, [sp]
	subs	r4, r5, #1
.Ltmp446:
	.loc	7 659 13 is_stmt 0              @ ../../../../Library/StdDriver/inc\spim_hyper.h:659:13
	cmp	r5, #2
.Ltmp447:
	@DEBUG_VALUE: SPIM_HYPER_WAIT_DMMDONE:u32TimeOutCount <- [DW_OP_constu 1, DW_OP_minus, DW_OP_stack_value] undef
	.loc	7 659 13                        @ ../../../../Library/StdDriver/inc\spim_hyper.h:659:13
	str	r4, [sp]
.Ltmp448:
	.loc	7 659 13                        @ ../../../../Library/StdDriver/inc\spim_hyper.h:659:13
	blt	.LBB12_18
.Ltmp449:
@ %bb.16:                               @   in Loop: Header=BB12_10 Depth=1
	@DEBUG_VALUE: SPIM_HYPER_SET_OPMODE:spim <- $r0
	@DEBUG_VALUE: SPIM_HYPER_SET_OPMODE:x <- 1
	@DEBUG_VALUE: SPIM_HYPER_WAIT_DMMDONE:spim <- $r0
	@DEBUG_VALUE: SPIM_HYPER_DMAWrite:u32NTx <- $r3
	@DEBUG_VALUE: SPIM_HYPER_DMAWrite:pu8WrBuf <- $r2
	@DEBUG_VALUE: SPIM_HYPER_DMAWrite:u32Addr <- $r1
	@DEBUG_VALUE: SPIM_HYPER_DMAWrite:spim <- $r0
	.loc	7 657 12 is_stmt 1              @ ../../../../Library/StdDriver/inc\spim_hyper.h:657:12
	ldr	r5, [r0, #68]
	.loc	7 657 5 is_stmt 0               @ ../../../../Library/StdDriver/inc\spim_hyper.h:657:5
	cmp	r5, #0
	bmi	.LBB12_18
.Ltmp450:
@ %bb.17:                               @   in Loop: Header=BB12_10 Depth=1
	@DEBUG_VALUE: SPIM_HYPER_SET_OPMODE:spim <- $r0
	@DEBUG_VALUE: SPIM_HYPER_SET_OPMODE:x <- 1
	@DEBUG_VALUE: SPIM_HYPER_WAIT_DMMDONE:spim <- $r0
	@DEBUG_VALUE: SPIM_HYPER_DMAWrite:u32NTx <- $r3
	@DEBUG_VALUE: SPIM_HYPER_DMAWrite:pu8WrBuf <- $r2
	@DEBUG_VALUE: SPIM_HYPER_DMAWrite:u32Addr <- $r1
	@DEBUG_VALUE: SPIM_HYPER_DMAWrite:spim <- $r0
	.loc	7 659 13 is_stmt 1              @ ../../../../Library/StdDriver/inc\spim_hyper.h:659:13
	ldr	r5, [sp]
	subs	r5, #1
	str	r5, [sp]
.Ltmp451:
	@DEBUG_VALUE: SPIM_HYPER_WAIT_DMMDONE:u32TimeOutCount <- [DW_OP_deref] $sp
	.loc	7 659 13 is_stmt 0              @ ../../../../Library/StdDriver/inc\spim_hyper.h:659:13
	bgt	.LBB12_10
.Ltmp452:
.LBB12_18:
	@DEBUG_VALUE: SPIM_HYPER_SET_OPMODE:spim <- $r0
	@DEBUG_VALUE: SPIM_HYPER_SET_OPMODE:x <- 1
	@DEBUG_VALUE: SPIM_HYPER_DMAWrite:u32NTx <- $r3
	@DEBUG_VALUE: SPIM_HYPER_DMAWrite:pu8WrBuf <- $r2
	@DEBUG_VALUE: SPIM_HYPER_DMAWrite:u32Addr <- $r1
	@DEBUG_VALUE: SPIM_HYPER_DMAWrite:spim <- $r0
	.loc	7 716 27 is_stmt 1              @ ../../../../Library/StdDriver/inc\spim_hyper.h:716:27
	ldr	r5, [r0]
	movs	r4, #1
	.loc	7 716 59 is_stmt 0              @ ../../../../Library/StdDriver/inc\spim_hyper.h:716:59
	bfi	r5, r4, #22, #2
	.loc	7 716 17                        @ ../../../../Library/StdDriver/inc\spim_hyper.h:716:17
	str	r5, [r0]
.Ltmp453:
	.loc	5 476 20 is_stmt 1              @ ../../../../Library/StdDriver/src/spim_hyper.c:476:20
	str	r2, [r0, #48]
	.loc	5 477 20                        @ ../../../../Library/StdDriver/src/spim_hyper.c:477:20
	str	r3, [r0, #52]
	.loc	5 478 20                        @ ../../../../Library/StdDriver/src/spim_hyper.c:478:20
	str	r1, [r0, #56]
.Ltmp454:
	@DEBUG_VALUE: SPIM_HYPER_WaitSPIMENDone:u32IsSync <- 1
	@DEBUG_VALUE: SPIM_HYPER_WaitSPIMENDone:spim <- $r0
	@DEBUG_VALUE: SPIM_HYPER_WaitSPIMENDone:i32TimeOutCount <- [DW_OP_plus_uconst 4, DW_OP_deref] $sp
	.loc	5 219 40                        @ ../../../../Library/StdDriver/src/spim_hyper.c:219:40
	ldr.w	r1, [r12]
.Ltmp455:
	@DEBUG_VALUE: SPIM_HYPER_DMAWrite:u32Addr <- [DW_OP_LLVM_entry_value 1] $r1
	.loc	5 219 22 is_stmt 0              @ ../../../../Library/StdDriver/src/spim_hyper.c:219:22
	str	r1, [sp, #4]
	.loc	5 222 5 is_stmt 1               @ ../../../../Library/StdDriver/src/spim_hyper.c:222:5
	ldr	r1, [r0, #4]!
.Ltmp456:
	@DEBUG_VALUE: SPIM_HYPER_DMAWrite:spim <- [DW_OP_LLVM_entry_value 1] $r0
	orr	r1, r1, #1
	str	r1, [r0]
	add.w	r1, r0, #148
.Ltmp457:
	.loc	5 0 5 is_stmt 0                 @ :0:5
.Ltmp458:
	.p2align	2
.LBB12_19:                              @ =>This Inner Loop Header: Depth=1
	@DEBUG_VALUE: SPIM_HYPER_DMAWrite:spim <- [DW_OP_LLVM_entry_value 1] $r0
	@DEBUG_VALUE: SPIM_HYPER_DMAWrite:u32Addr <- [DW_OP_LLVM_entry_value 1] $r1
	@DEBUG_VALUE: SPIM_HYPER_WaitSPIMENDone:i32TimeOutCount <- [DW_OP_plus_uconst 4, DW_OP_deref] $sp
	@DEBUG_VALUE: SPIM_HYPER_WaitSPIMENDone:u32IsSync <- 1
	@DEBUG_VALUE: SPIM_HYPER_DMAWrite:u32NTx <- $r3
	.loc	5 226 17 is_stmt 1              @ ../../../../Library/StdDriver/src/spim_hyper.c:226:17
	ldr	r2, [r1]
.Ltmp459:
	@DEBUG_VALUE: SPIM_HYPER_DMAWrite:pu8WrBuf <- [DW_OP_LLVM_entry_value 1] $r2
	lsls	r2, r2, #31
	csel	r2, r0, r1, eq
	.loc	5 226 0 is_stmt 0               @ ../../../../Library/StdDriver/src/spim_hyper.c:226:0
	ldr	r2, [r2]
	.loc	5 226 9                         @ ../../../../Library/StdDriver/src/spim_hyper.c:226:9
	lsls	r2, r2, #31
	beq	.LBB12_22
.Ltmp460:
@ %bb.20:                               @   in Loop: Header=BB12_19 Depth=1
	@DEBUG_VALUE: SPIM_HYPER_DMAWrite:spim <- [DW_OP_LLVM_entry_value 1] $r0
	@DEBUG_VALUE: SPIM_HYPER_DMAWrite:u32Addr <- [DW_OP_LLVM_entry_value 1] $r1
	@DEBUG_VALUE: SPIM_HYPER_WaitSPIMENDone:i32TimeOutCount <- [DW_OP_plus_uconst 4, DW_OP_deref] $sp
	@DEBUG_VALUE: SPIM_HYPER_WaitSPIMENDone:u32IsSync <- 1
	@DEBUG_VALUE: SPIM_HYPER_DMAWrite:u32NTx <- $r3
	.loc	5 228 17 is_stmt 1              @ ../../../../Library/StdDriver/src/spim_hyper.c:228:17
	ldr	r2, [sp, #4]
	subs	r2, #1
	str	r2, [sp, #4]
.Ltmp461:
	@DEBUG_VALUE: SPIM_HYPER_WaitSPIMENDone:i32TimeOutCount <- [DW_OP_plus_uconst 4, DW_OP_deref] $sp
	.loc	5 228 17 is_stmt 0              @ ../../../../Library/StdDriver/src/spim_hyper.c:228:17
	bgt	.LBB12_19
.Ltmp462:
@ %bb.21:
	@DEBUG_VALUE: SPIM_HYPER_DMAWrite:spim <- [DW_OP_LLVM_entry_value 1] $r0
	@DEBUG_VALUE: SPIM_HYPER_DMAWrite:u32Addr <- [DW_OP_LLVM_entry_value 1] $r1
	@DEBUG_VALUE: SPIM_HYPER_DMAWrite:u32NTx <- $r3
	.loc	5 0 17                          @ ../../../../Library/StdDriver/src/spim_hyper.c:0:17
	mvn	r0, #1
	.loc	5 480 5 epilogue_begin is_stmt 1 @ ../../../../Library/StdDriver/src/spim_hyper.c:480:5
	add	sp, #8
	pop	{r4, r5, r7, pc}
.Ltmp463:
.LBB12_22:
	@DEBUG_VALUE: SPIM_HYPER_DMAWrite:spim <- [DW_OP_LLVM_entry_value 1] $r0
	@DEBUG_VALUE: SPIM_HYPER_DMAWrite:u32Addr <- [DW_OP_LLVM_entry_value 1] $r1
	@DEBUG_VALUE: SPIM_HYPER_DMAWrite:u32NTx <- $r3
	.loc	5 0 5 is_stmt 0                 @ ../../../../Library/StdDriver/src/spim_hyper.c:0:5
	movs	r0, #0
	.loc	5 480 5 epilogue_begin          @ ../../../../Library/StdDriver/src/spim_hyper.c:480:5
	add	sp, #8
	pop	{r4, r5, r7, pc}
.Ltmp464:
.Lfunc_end12:
	.size	SPIM_HYPER_DMAWrite, .Lfunc_end12-SPIM_HYPER_DMAWrite
	.cfi_endproc
	.cantunwind
	.fnend
                                        @ -- End function
	.section	.text.SPIM_HYPER_DMARead,"ax",%progbits
	.hidden	SPIM_HYPER_DMARead              @ -- Begin function SPIM_HYPER_DMARead
	.globl	SPIM_HYPER_DMARead
	.p2align	2
	.type	SPIM_HYPER_DMARead,%function
	.code	16                              @ @SPIM_HYPER_DMARead
	.thumb_func
SPIM_HYPER_DMARead:
.Lfunc_begin13:
	.loc	5 495 0 is_stmt 1               @ ../../../../Library/StdDriver/src/spim_hyper.c:495:0
	.fnstart
	.cfi_startproc
@ %bb.0:
	@DEBUG_VALUE: SPIM_HYPER_DMARead:spim <- $r0
	@DEBUG_VALUE: SPIM_HYPER_DMARead:u32Addr <- $r1
	@DEBUG_VALUE: SPIM_HYPER_DMARead:pu8RdBuf <- $r2
	@DEBUG_VALUE: SPIM_HYPER_DMARead:u32NRx <- $r3
	.save	{r4, r5, r7, lr}
	push	{r4, r5, r7, lr}
	.cfi_def_cfa_offset 16
	.cfi_offset lr, -4
	.cfi_offset r7, -8
	.cfi_offset r5, -12
	.cfi_offset r4, -16
	.pad	#8
	sub	sp, #8
	.cfi_def_cfa_offset 24
.Ltmp465:
	.loc	7 642 40 prologue_end           @ ../../../../Library/StdDriver/inc\spim_hyper.h:642:40
	movw	r12, :lower16:SystemCoreClock
	movt	r12, :upper16:SystemCoreClock
	ldr.w	lr, [r12]
.Ltmp466:
	@DEBUG_VALUE: SPIM_HYPER_WAIT_DMMDONE:spim <- $r0
	@DEBUG_VALUE: SPIM_HYPER_WAIT_DMMDONE:u32TimeOutCount <- [DW_OP_deref] $sp
	@DEBUG_VALUE: SPIM_HYPER_SET_OPMODE:x <- 2
	@DEBUG_VALUE: SPIM_HYPER_SET_OPMODE:spim <- $r0
	.loc	7 642 22 is_stmt 0              @ ../../../../Library/StdDriver/inc\spim_hyper.h:642:22
	str.w	lr, [sp]
	.loc	7 644 5 is_stmt 1               @ ../../../../Library/StdDriver/inc\spim_hyper.h:644:5
	ldr	r4, [r0, #68]
	orr	r4, r4, #134217728
	str	r4, [r0, #68]
.Ltmp467:
.LBB13_1:                               @ =>This Inner Loop Header: Depth=1
	@DEBUG_VALUE: SPIM_HYPER_SET_OPMODE:spim <- $r0
	@DEBUG_VALUE: SPIM_HYPER_SET_OPMODE:x <- 2
	@DEBUG_VALUE: SPIM_HYPER_WAIT_DMMDONE:u32TimeOutCount <- [DW_OP_deref] $sp
	@DEBUG_VALUE: SPIM_HYPER_WAIT_DMMDONE:spim <- $r0
	@DEBUG_VALUE: SPIM_HYPER_DMARead:u32NRx <- $r3
	@DEBUG_VALUE: SPIM_HYPER_DMARead:pu8RdBuf <- $r2
	@DEBUG_VALUE: SPIM_HYPER_DMARead:u32Addr <- $r1
	@DEBUG_VALUE: SPIM_HYPER_DMARead:spim <- $r0
	.loc	7 646 12                        @ ../../../../Library/StdDriver/inc\spim_hyper.h:646:12
	ldr	r4, [r0, #68]
	.loc	7 646 5 is_stmt 0               @ ../../../../Library/StdDriver/inc\spim_hyper.h:646:5
	lsls	r4, r4, #4
	bpl	.LBB13_9
.Ltmp468:
@ %bb.2:                                @   in Loop: Header=BB13_1 Depth=1
	@DEBUG_VALUE: SPIM_HYPER_SET_OPMODE:spim <- $r0
	@DEBUG_VALUE: SPIM_HYPER_SET_OPMODE:x <- 2
	@DEBUG_VALUE: SPIM_HYPER_WAIT_DMMDONE:u32TimeOutCount <- [DW_OP_deref] $sp
	@DEBUG_VALUE: SPIM_HYPER_WAIT_DMMDONE:spim <- $r0
	@DEBUG_VALUE: SPIM_HYPER_DMARead:u32NRx <- $r3
	@DEBUG_VALUE: SPIM_HYPER_DMARead:pu8RdBuf <- $r2
	@DEBUG_VALUE: SPIM_HYPER_DMARead:u32Addr <- $r1
	@DEBUG_VALUE: SPIM_HYPER_DMARead:spim <- $r0
	.loc	7 648 13 is_stmt 1              @ ../../../../Library/StdDriver/inc\spim_hyper.h:648:13
	ldr	r4, [sp]
	subs	r5, r4, #1
.Ltmp469:
	.loc	7 648 13 is_stmt 0              @ ../../../../Library/StdDriver/inc\spim_hyper.h:648:13
	cmp	r4, #2
.Ltmp470:
	@DEBUG_VALUE: SPIM_HYPER_WAIT_DMMDONE:u32TimeOutCount <- [DW_OP_constu 1, DW_OP_minus, DW_OP_stack_value] undef
	.loc	7 648 13                        @ ../../../../Library/StdDriver/inc\spim_hyper.h:648:13
	str	r5, [sp]
.Ltmp471:
	.loc	7 648 13                        @ ../../../../Library/StdDriver/inc\spim_hyper.h:648:13
	blt	.LBB13_9
.Ltmp472:
@ %bb.3:                                @   in Loop: Header=BB13_1 Depth=1
	@DEBUG_VALUE: SPIM_HYPER_SET_OPMODE:spim <- $r0
	@DEBUG_VALUE: SPIM_HYPER_SET_OPMODE:x <- 2
	@DEBUG_VALUE: SPIM_HYPER_WAIT_DMMDONE:spim <- $r0
	@DEBUG_VALUE: SPIM_HYPER_DMARead:u32NRx <- $r3
	@DEBUG_VALUE: SPIM_HYPER_DMARead:pu8RdBuf <- $r2
	@DEBUG_VALUE: SPIM_HYPER_DMARead:u32Addr <- $r1
	@DEBUG_VALUE: SPIM_HYPER_DMARead:spim <- $r0
	.loc	7 646 12 is_stmt 1              @ ../../../../Library/StdDriver/inc\spim_hyper.h:646:12
	ldr	r4, [r0, #68]
	.loc	7 646 5 is_stmt 0               @ ../../../../Library/StdDriver/inc\spim_hyper.h:646:5
	lsls	r4, r4, #4
	bpl	.LBB13_9
.Ltmp473:
@ %bb.4:                                @   in Loop: Header=BB13_1 Depth=1
	@DEBUG_VALUE: SPIM_HYPER_SET_OPMODE:spim <- $r0
	@DEBUG_VALUE: SPIM_HYPER_SET_OPMODE:x <- 2
	@DEBUG_VALUE: SPIM_HYPER_WAIT_DMMDONE:spim <- $r0
	@DEBUG_VALUE: SPIM_HYPER_DMARead:u32NRx <- $r3
	@DEBUG_VALUE: SPIM_HYPER_DMARead:pu8RdBuf <- $r2
	@DEBUG_VALUE: SPIM_HYPER_DMARead:u32Addr <- $r1
	@DEBUG_VALUE: SPIM_HYPER_DMARead:spim <- $r0
	.loc	7 648 13 is_stmt 1              @ ../../../../Library/StdDriver/inc\spim_hyper.h:648:13
	ldr	r4, [sp]
	subs	r5, r4, #1
.Ltmp474:
	.loc	7 648 13 is_stmt 0              @ ../../../../Library/StdDriver/inc\spim_hyper.h:648:13
	cmp	r4, #2
.Ltmp475:
	@DEBUG_VALUE: SPIM_HYPER_WAIT_DMMDONE:u32TimeOutCount <- [DW_OP_constu 1, DW_OP_minus, DW_OP_stack_value] undef
	.loc	7 648 13                        @ ../../../../Library/StdDriver/inc\spim_hyper.h:648:13
	str	r5, [sp]
.Ltmp476:
	.loc	7 648 13                        @ ../../../../Library/StdDriver/inc\spim_hyper.h:648:13
	blt	.LBB13_9
.Ltmp477:
@ %bb.5:                                @   in Loop: Header=BB13_1 Depth=1
	@DEBUG_VALUE: SPIM_HYPER_SET_OPMODE:spim <- $r0
	@DEBUG_VALUE: SPIM_HYPER_SET_OPMODE:x <- 2
	@DEBUG_VALUE: SPIM_HYPER_WAIT_DMMDONE:spim <- $r0
	@DEBUG_VALUE: SPIM_HYPER_DMARead:u32NRx <- $r3
	@DEBUG_VALUE: SPIM_HYPER_DMARead:pu8RdBuf <- $r2
	@DEBUG_VALUE: SPIM_HYPER_DMARead:u32Addr <- $r1
	@DEBUG_VALUE: SPIM_HYPER_DMARead:spim <- $r0
	.loc	7 646 12 is_stmt 1              @ ../../../../Library/StdDriver/inc\spim_hyper.h:646:12
	ldr	r4, [r0, #68]
	.loc	7 646 5 is_stmt 0               @ ../../../../Library/StdDriver/inc\spim_hyper.h:646:5
	lsls	r4, r4, #4
	bpl	.LBB13_9
.Ltmp478:
@ %bb.6:                                @   in Loop: Header=BB13_1 Depth=1
	@DEBUG_VALUE: SPIM_HYPER_SET_OPMODE:spim <- $r0
	@DEBUG_VALUE: SPIM_HYPER_SET_OPMODE:x <- 2
	@DEBUG_VALUE: SPIM_HYPER_WAIT_DMMDONE:spim <- $r0
	@DEBUG_VALUE: SPIM_HYPER_DMARead:u32NRx <- $r3
	@DEBUG_VALUE: SPIM_HYPER_DMARead:pu8RdBuf <- $r2
	@DEBUG_VALUE: SPIM_HYPER_DMARead:u32Addr <- $r1
	@DEBUG_VALUE: SPIM_HYPER_DMARead:spim <- $r0
	.loc	7 648 13 is_stmt 1              @ ../../../../Library/StdDriver/inc\spim_hyper.h:648:13
	ldr	r4, [sp]
	subs	r5, r4, #1
.Ltmp479:
	.loc	7 648 13 is_stmt 0              @ ../../../../Library/StdDriver/inc\spim_hyper.h:648:13
	cmp	r4, #2
.Ltmp480:
	@DEBUG_VALUE: SPIM_HYPER_WAIT_DMMDONE:u32TimeOutCount <- [DW_OP_constu 1, DW_OP_minus, DW_OP_stack_value] undef
	.loc	7 648 13                        @ ../../../../Library/StdDriver/inc\spim_hyper.h:648:13
	str	r5, [sp]
.Ltmp481:
	.loc	7 648 13                        @ ../../../../Library/StdDriver/inc\spim_hyper.h:648:13
	blt	.LBB13_9
.Ltmp482:
@ %bb.7:                                @   in Loop: Header=BB13_1 Depth=1
	@DEBUG_VALUE: SPIM_HYPER_SET_OPMODE:spim <- $r0
	@DEBUG_VALUE: SPIM_HYPER_SET_OPMODE:x <- 2
	@DEBUG_VALUE: SPIM_HYPER_WAIT_DMMDONE:spim <- $r0
	@DEBUG_VALUE: SPIM_HYPER_DMARead:u32NRx <- $r3
	@DEBUG_VALUE: SPIM_HYPER_DMARead:pu8RdBuf <- $r2
	@DEBUG_VALUE: SPIM_HYPER_DMARead:u32Addr <- $r1
	@DEBUG_VALUE: SPIM_HYPER_DMARead:spim <- $r0
	.loc	7 646 12 is_stmt 1              @ ../../../../Library/StdDriver/inc\spim_hyper.h:646:12
	ldr	r4, [r0, #68]
	.loc	7 646 5 is_stmt 0               @ ../../../../Library/StdDriver/inc\spim_hyper.h:646:5
	lsls	r4, r4, #4
	bpl	.LBB13_9
.Ltmp483:
@ %bb.8:                                @   in Loop: Header=BB13_1 Depth=1
	@DEBUG_VALUE: SPIM_HYPER_SET_OPMODE:spim <- $r0
	@DEBUG_VALUE: SPIM_HYPER_SET_OPMODE:x <- 2
	@DEBUG_VALUE: SPIM_HYPER_WAIT_DMMDONE:spim <- $r0
	@DEBUG_VALUE: SPIM_HYPER_DMARead:u32NRx <- $r3
	@DEBUG_VALUE: SPIM_HYPER_DMARead:pu8RdBuf <- $r2
	@DEBUG_VALUE: SPIM_HYPER_DMARead:u32Addr <- $r1
	@DEBUG_VALUE: SPIM_HYPER_DMARead:spim <- $r0
	.loc	7 648 13 is_stmt 1              @ ../../../../Library/StdDriver/inc\spim_hyper.h:648:13
	ldr	r4, [sp]
	subs	r4, #1
	str	r4, [sp]
.Ltmp484:
	@DEBUG_VALUE: SPIM_HYPER_WAIT_DMMDONE:u32TimeOutCount <- [DW_OP_deref] $sp
	.loc	7 648 13 is_stmt 0              @ ../../../../Library/StdDriver/inc\spim_hyper.h:648:13
	bgt	.LBB13_1
.Ltmp485:
.LBB13_9:
	@DEBUG_VALUE: SPIM_HYPER_SET_OPMODE:spim <- $r0
	@DEBUG_VALUE: SPIM_HYPER_SET_OPMODE:x <- 2
	@DEBUG_VALUE: SPIM_HYPER_WAIT_DMMDONE:spim <- $r0
	@DEBUG_VALUE: SPIM_HYPER_DMARead:u32NRx <- $r3
	@DEBUG_VALUE: SPIM_HYPER_DMARead:pu8RdBuf <- $r2
	@DEBUG_VALUE: SPIM_HYPER_DMARead:u32Addr <- $r1
	@DEBUG_VALUE: SPIM_HYPER_DMARead:spim <- $r0
	.loc	7 654 21 is_stmt 1              @ ../../../../Library/StdDriver/inc\spim_hyper.h:654:21
	str.w	lr, [sp]
.Ltmp486:
	@DEBUG_VALUE: SPIM_HYPER_WAIT_DMMDONE:u32TimeOutCount <- [DW_OP_deref] $sp
.LBB13_10:                              @ =>This Inner Loop Header: Depth=1
	@DEBUG_VALUE: SPIM_HYPER_SET_OPMODE:spim <- $r0
	@DEBUG_VALUE: SPIM_HYPER_SET_OPMODE:x <- 2
	@DEBUG_VALUE: SPIM_HYPER_WAIT_DMMDONE:u32TimeOutCount <- [DW_OP_deref] $sp
	@DEBUG_VALUE: SPIM_HYPER_WAIT_DMMDONE:spim <- $r0
	@DEBUG_VALUE: SPIM_HYPER_DMARead:u32NRx <- $r3
	@DEBUG_VALUE: SPIM_HYPER_DMARead:pu8RdBuf <- $r2
	@DEBUG_VALUE: SPIM_HYPER_DMARead:u32Addr <- $r1
	@DEBUG_VALUE: SPIM_HYPER_DMARead:spim <- $r0
	.loc	7 657 12                        @ ../../../../Library/StdDriver/inc\spim_hyper.h:657:12
	ldr	r5, [r0, #68]
	.loc	7 657 5 is_stmt 0               @ ../../../../Library/StdDriver/inc\spim_hyper.h:657:5
	cmp	r5, #0
	bmi	.LBB13_18
.Ltmp487:
@ %bb.11:                               @   in Loop: Header=BB13_10 Depth=1
	@DEBUG_VALUE: SPIM_HYPER_SET_OPMODE:spim <- $r0
	@DEBUG_VALUE: SPIM_HYPER_SET_OPMODE:x <- 2
	@DEBUG_VALUE: SPIM_HYPER_WAIT_DMMDONE:u32TimeOutCount <- [DW_OP_deref] $sp
	@DEBUG_VALUE: SPIM_HYPER_WAIT_DMMDONE:spim <- $r0
	@DEBUG_VALUE: SPIM_HYPER_DMARead:u32NRx <- $r3
	@DEBUG_VALUE: SPIM_HYPER_DMARead:pu8RdBuf <- $r2
	@DEBUG_VALUE: SPIM_HYPER_DMARead:u32Addr <- $r1
	@DEBUG_VALUE: SPIM_HYPER_DMARead:spim <- $r0
	.loc	7 659 13 is_stmt 1              @ ../../../../Library/StdDriver/inc\spim_hyper.h:659:13
	ldr	r5, [sp]
	subs	r4, r5, #1
.Ltmp488:
	.loc	7 659 13 is_stmt 0              @ ../../../../Library/StdDriver/inc\spim_hyper.h:659:13
	cmp	r5, #2
.Ltmp489:
	@DEBUG_VALUE: SPIM_HYPER_WAIT_DMMDONE:u32TimeOutCount <- [DW_OP_constu 1, DW_OP_minus, DW_OP_stack_value] undef
	.loc	7 659 13                        @ ../../../../Library/StdDriver/inc\spim_hyper.h:659:13
	str	r4, [sp]
.Ltmp490:
	.loc	7 659 13                        @ ../../../../Library/StdDriver/inc\spim_hyper.h:659:13
	blt	.LBB13_18
.Ltmp491:
@ %bb.12:                               @   in Loop: Header=BB13_10 Depth=1
	@DEBUG_VALUE: SPIM_HYPER_SET_OPMODE:spim <- $r0
	@DEBUG_VALUE: SPIM_HYPER_SET_OPMODE:x <- 2
	@DEBUG_VALUE: SPIM_HYPER_WAIT_DMMDONE:spim <- $r0
	@DEBUG_VALUE: SPIM_HYPER_DMARead:u32NRx <- $r3
	@DEBUG_VALUE: SPIM_HYPER_DMARead:pu8RdBuf <- $r2
	@DEBUG_VALUE: SPIM_HYPER_DMARead:u32Addr <- $r1
	@DEBUG_VALUE: SPIM_HYPER_DMARead:spim <- $r0
	.loc	7 657 12 is_stmt 1              @ ../../../../Library/StdDriver/inc\spim_hyper.h:657:12
	ldr	r5, [r0, #68]
	.loc	7 657 5 is_stmt 0               @ ../../../../Library/StdDriver/inc\spim_hyper.h:657:5
	cmp	r5, #0
	bmi	.LBB13_18
.Ltmp492:
@ %bb.13:                               @   in Loop: Header=BB13_10 Depth=1
	@DEBUG_VALUE: SPIM_HYPER_SET_OPMODE:spim <- $r0
	@DEBUG_VALUE: SPIM_HYPER_SET_OPMODE:x <- 2
	@DEBUG_VALUE: SPIM_HYPER_WAIT_DMMDONE:spim <- $r0
	@DEBUG_VALUE: SPIM_HYPER_DMARead:u32NRx <- $r3
	@DEBUG_VALUE: SPIM_HYPER_DMARead:pu8RdBuf <- $r2
	@DEBUG_VALUE: SPIM_HYPER_DMARead:u32Addr <- $r1
	@DEBUG_VALUE: SPIM_HYPER_DMARead:spim <- $r0
	.loc	7 659 13 is_stmt 1              @ ../../../../Library/StdDriver/inc\spim_hyper.h:659:13
	ldr	r5, [sp]
	subs	r4, r5, #1
.Ltmp493:
	.loc	7 659 13 is_stmt 0              @ ../../../../Library/StdDriver/inc\spim_hyper.h:659:13
	cmp	r5, #2
.Ltmp494:
	@DEBUG_VALUE: SPIM_HYPER_WAIT_DMMDONE:u32TimeOutCount <- [DW_OP_constu 1, DW_OP_minus, DW_OP_stack_value] undef
	.loc	7 659 13                        @ ../../../../Library/StdDriver/inc\spim_hyper.h:659:13
	str	r4, [sp]
.Ltmp495:
	.loc	7 659 13                        @ ../../../../Library/StdDriver/inc\spim_hyper.h:659:13
	blt	.LBB13_18
.Ltmp496:
@ %bb.14:                               @   in Loop: Header=BB13_10 Depth=1
	@DEBUG_VALUE: SPIM_HYPER_SET_OPMODE:spim <- $r0
	@DEBUG_VALUE: SPIM_HYPER_SET_OPMODE:x <- 2
	@DEBUG_VALUE: SPIM_HYPER_WAIT_DMMDONE:spim <- $r0
	@DEBUG_VALUE: SPIM_HYPER_DMARead:u32NRx <- $r3
	@DEBUG_VALUE: SPIM_HYPER_DMARead:pu8RdBuf <- $r2
	@DEBUG_VALUE: SPIM_HYPER_DMARead:u32Addr <- $r1
	@DEBUG_VALUE: SPIM_HYPER_DMARead:spim <- $r0
	.loc	7 657 12 is_stmt 1              @ ../../../../Library/StdDriver/inc\spim_hyper.h:657:12
	ldr	r5, [r0, #68]
	.loc	7 657 5 is_stmt 0               @ ../../../../Library/StdDriver/inc\spim_hyper.h:657:5
	cmp	r5, #0
	bmi	.LBB13_18
.Ltmp497:
@ %bb.15:                               @   in Loop: Header=BB13_10 Depth=1
	@DEBUG_VALUE: SPIM_HYPER_SET_OPMODE:spim <- $r0
	@DEBUG_VALUE: SPIM_HYPER_SET_OPMODE:x <- 2
	@DEBUG_VALUE: SPIM_HYPER_WAIT_DMMDONE:spim <- $r0
	@DEBUG_VALUE: SPIM_HYPER_DMARead:u32NRx <- $r3
	@DEBUG_VALUE: SPIM_HYPER_DMARead:pu8RdBuf <- $r2
	@DEBUG_VALUE: SPIM_HYPER_DMARead:u32Addr <- $r1
	@DEBUG_VALUE: SPIM_HYPER_DMARead:spim <- $r0
	.loc	7 659 13 is_stmt 1              @ ../../../../Library/StdDriver/inc\spim_hyper.h:659:13
	ldr	r5, [sp]
	subs	r4, r5, #1
.Ltmp498:
	.loc	7 659 13 is_stmt 0              @ ../../../../Library/StdDriver/inc\spim_hyper.h:659:13
	cmp	r5, #2
.Ltmp499:
	@DEBUG_VALUE: SPIM_HYPER_WAIT_DMMDONE:u32TimeOutCount <- [DW_OP_constu 1, DW_OP_minus, DW_OP_stack_value] undef
	.loc	7 659 13                        @ ../../../../Library/StdDriver/inc\spim_hyper.h:659:13
	str	r4, [sp]
.Ltmp500:
	.loc	7 659 13                        @ ../../../../Library/StdDriver/inc\spim_hyper.h:659:13
	blt	.LBB13_18
.Ltmp501:
@ %bb.16:                               @   in Loop: Header=BB13_10 Depth=1
	@DEBUG_VALUE: SPIM_HYPER_SET_OPMODE:spim <- $r0
	@DEBUG_VALUE: SPIM_HYPER_SET_OPMODE:x <- 2
	@DEBUG_VALUE: SPIM_HYPER_WAIT_DMMDONE:spim <- $r0
	@DEBUG_VALUE: SPIM_HYPER_DMARead:u32NRx <- $r3
	@DEBUG_VALUE: SPIM_HYPER_DMARead:pu8RdBuf <- $r2
	@DEBUG_VALUE: SPIM_HYPER_DMARead:u32Addr <- $r1
	@DEBUG_VALUE: SPIM_HYPER_DMARead:spim <- $r0
	.loc	7 657 12 is_stmt 1              @ ../../../../Library/StdDriver/inc\spim_hyper.h:657:12
	ldr	r5, [r0, #68]
	.loc	7 657 5 is_stmt 0               @ ../../../../Library/StdDriver/inc\spim_hyper.h:657:5
	cmp	r5, #0
	bmi	.LBB13_18
.Ltmp502:
@ %bb.17:                               @   in Loop: Header=BB13_10 Depth=1
	@DEBUG_VALUE: SPIM_HYPER_SET_OPMODE:spim <- $r0
	@DEBUG_VALUE: SPIM_HYPER_SET_OPMODE:x <- 2
	@DEBUG_VALUE: SPIM_HYPER_WAIT_DMMDONE:spim <- $r0
	@DEBUG_VALUE: SPIM_HYPER_DMARead:u32NRx <- $r3
	@DEBUG_VALUE: SPIM_HYPER_DMARead:pu8RdBuf <- $r2
	@DEBUG_VALUE: SPIM_HYPER_DMARead:u32Addr <- $r1
	@DEBUG_VALUE: SPIM_HYPER_DMARead:spim <- $r0
	.loc	7 659 13 is_stmt 1              @ ../../../../Library/StdDriver/inc\spim_hyper.h:659:13
	ldr	r5, [sp]
	subs	r5, #1
	str	r5, [sp]
.Ltmp503:
	@DEBUG_VALUE: SPIM_HYPER_WAIT_DMMDONE:u32TimeOutCount <- [DW_OP_deref] $sp
	.loc	7 659 13 is_stmt 0              @ ../../../../Library/StdDriver/inc\spim_hyper.h:659:13
	bgt	.LBB13_10
.Ltmp504:
.LBB13_18:
	@DEBUG_VALUE: SPIM_HYPER_SET_OPMODE:spim <- $r0
	@DEBUG_VALUE: SPIM_HYPER_SET_OPMODE:x <- 2
	@DEBUG_VALUE: SPIM_HYPER_DMARead:u32NRx <- $r3
	@DEBUG_VALUE: SPIM_HYPER_DMARead:pu8RdBuf <- $r2
	@DEBUG_VALUE: SPIM_HYPER_DMARead:u32Addr <- $r1
	@DEBUG_VALUE: SPIM_HYPER_DMARead:spim <- $r0
	.loc	7 716 27 is_stmt 1              @ ../../../../Library/StdDriver/inc\spim_hyper.h:716:27
	ldr	r5, [r0]
	movs	r4, #2
	.loc	7 716 59 is_stmt 0              @ ../../../../Library/StdDriver/inc\spim_hyper.h:716:59
	bfi	r5, r4, #22, #2
	.loc	7 716 17                        @ ../../../../Library/StdDriver/inc\spim_hyper.h:716:17
	str	r5, [r0]
.Ltmp505:
	.loc	5 497 20 is_stmt 1              @ ../../../../Library/StdDriver/src/spim_hyper.c:497:20
	str	r2, [r0, #48]
	.loc	5 498 20                        @ ../../../../Library/StdDriver/src/spim_hyper.c:498:20
	str	r3, [r0, #52]
	.loc	5 499 20                        @ ../../../../Library/StdDriver/src/spim_hyper.c:499:20
	str	r1, [r0, #56]
.Ltmp506:
	@DEBUG_VALUE: SPIM_HYPER_WaitSPIMENDone:u32IsSync <- 1
	@DEBUG_VALUE: SPIM_HYPER_WaitSPIMENDone:spim <- $r0
	@DEBUG_VALUE: SPIM_HYPER_WaitSPIMENDone:i32TimeOutCount <- [DW_OP_plus_uconst 4, DW_OP_deref] $sp
	.loc	5 219 40                        @ ../../../../Library/StdDriver/src/spim_hyper.c:219:40
	ldr.w	r1, [r12]
.Ltmp507:
	@DEBUG_VALUE: SPIM_HYPER_DMARead:u32Addr <- [DW_OP_LLVM_entry_value 1] $r1
	.loc	5 219 22 is_stmt 0              @ ../../../../Library/StdDriver/src/spim_hyper.c:219:22
	str	r1, [sp, #4]
	.loc	5 222 5 is_stmt 1               @ ../../../../Library/StdDriver/src/spim_hyper.c:222:5
	ldr	r1, [r0, #4]!
.Ltmp508:
	@DEBUG_VALUE: SPIM_HYPER_DMARead:spim <- [DW_OP_LLVM_entry_value 1] $r0
	orr	r1, r1, #1
	str	r1, [r0]
	add.w	r1, r0, #148
.Ltmp509:
	.loc	5 0 5 is_stmt 0                 @ :0:5
.Ltmp510:
	.p2align	2
.LBB13_19:                              @ =>This Inner Loop Header: Depth=1
	@DEBUG_VALUE: SPIM_HYPER_DMARead:spim <- [DW_OP_LLVM_entry_value 1] $r0
	@DEBUG_VALUE: SPIM_HYPER_DMARead:u32Addr <- [DW_OP_LLVM_entry_value 1] $r1
	@DEBUG_VALUE: SPIM_HYPER_WaitSPIMENDone:i32TimeOutCount <- [DW_OP_plus_uconst 4, DW_OP_deref] $sp
	@DEBUG_VALUE: SPIM_HYPER_WaitSPIMENDone:u32IsSync <- 1
	@DEBUG_VALUE: SPIM_HYPER_DMARead:u32NRx <- $r3
	.loc	5 226 17 is_stmt 1              @ ../../../../Library/StdDriver/src/spim_hyper.c:226:17
	ldr	r2, [r1]
.Ltmp511:
	@DEBUG_VALUE: SPIM_HYPER_DMARead:pu8RdBuf <- [DW_OP_LLVM_entry_value 1] $r2
	lsls	r2, r2, #31
	csel	r2, r0, r1, eq
	.loc	5 226 0 is_stmt 0               @ ../../../../Library/StdDriver/src/spim_hyper.c:226:0
	ldr	r2, [r2]
	.loc	5 226 9                         @ ../../../../Library/StdDriver/src/spim_hyper.c:226:9
	lsls	r2, r2, #31
	beq	.LBB13_22
.Ltmp512:
@ %bb.20:                               @   in Loop: Header=BB13_19 Depth=1
	@DEBUG_VALUE: SPIM_HYPER_DMARead:spim <- [DW_OP_LLVM_entry_value 1] $r0
	@DEBUG_VALUE: SPIM_HYPER_DMARead:u32Addr <- [DW_OP_LLVM_entry_value 1] $r1
	@DEBUG_VALUE: SPIM_HYPER_WaitSPIMENDone:i32TimeOutCount <- [DW_OP_plus_uconst 4, DW_OP_deref] $sp
	@DEBUG_VALUE: SPIM_HYPER_WaitSPIMENDone:u32IsSync <- 1
	@DEBUG_VALUE: SPIM_HYPER_DMARead:u32NRx <- $r3
	.loc	5 228 17 is_stmt 1              @ ../../../../Library/StdDriver/src/spim_hyper.c:228:17
	ldr	r2, [sp, #4]
	subs	r2, #1
	str	r2, [sp, #4]
.Ltmp513:
	@DEBUG_VALUE: SPIM_HYPER_WaitSPIMENDone:i32TimeOutCount <- [DW_OP_plus_uconst 4, DW_OP_deref] $sp
	.loc	5 228 17 is_stmt 0              @ ../../../../Library/StdDriver/src/spim_hyper.c:228:17
	bgt	.LBB13_19
.Ltmp514:
@ %bb.21:
	@DEBUG_VALUE: SPIM_HYPER_DMARead:spim <- [DW_OP_LLVM_entry_value 1] $r0
	@DEBUG_VALUE: SPIM_HYPER_DMARead:u32Addr <- [DW_OP_LLVM_entry_value 1] $r1
	@DEBUG_VALUE: SPIM_HYPER_DMARead:u32NRx <- $r3
	.loc	5 0 17                          @ ../../../../Library/StdDriver/src/spim_hyper.c:0:17
	mvn	r0, #1
	.loc	5 501 5 epilogue_begin is_stmt 1 @ ../../../../Library/StdDriver/src/spim_hyper.c:501:5
	add	sp, #8
	pop	{r4, r5, r7, pc}
.Ltmp515:
.LBB13_22:
	@DEBUG_VALUE: SPIM_HYPER_DMARead:spim <- [DW_OP_LLVM_entry_value 1] $r0
	@DEBUG_VALUE: SPIM_HYPER_DMARead:u32Addr <- [DW_OP_LLVM_entry_value 1] $r1
	@DEBUG_VALUE: SPIM_HYPER_DMARead:u32NRx <- $r3
	.loc	5 0 5 is_stmt 0                 @ ../../../../Library/StdDriver/src/spim_hyper.c:0:5
	movs	r0, #0
	.loc	5 501 5 epilogue_begin          @ ../../../../Library/StdDriver/src/spim_hyper.c:501:5
	add	sp, #8
	pop	{r4, r5, r7, pc}
.Ltmp516:
.Lfunc_end13:
	.size	SPIM_HYPER_DMARead, .Lfunc_end13-SPIM_HYPER_DMARead
	.cfi_endproc
	.cantunwind
	.fnend
                                        @ -- End function
	.section	.text.SPIM_HYPER_EnterDirectMapMode,"ax",%progbits
	.hidden	SPIM_HYPER_EnterDirectMapMode   @ -- Begin function SPIM_HYPER_EnterDirectMapMode
	.globl	SPIM_HYPER_EnterDirectMapMode
	.p2align	2
	.type	SPIM_HYPER_EnterDirectMapMode,%function
	.code	16                              @ @SPIM_HYPER_EnterDirectMapMode
	.thumb_func
SPIM_HYPER_EnterDirectMapMode:
.Lfunc_begin14:
	.loc	5 511 0 is_stmt 1               @ ../../../../Library/StdDriver/src/spim_hyper.c:511:0
	.fnstart
	.cfi_startproc
@ %bb.0:
	@DEBUG_VALUE: SPIM_HYPER_EnterDirectMapMode:spim <- $r0
	.pad	#4
	sub	sp, #4
	.cfi_def_cfa_offset 4
.Ltmp517:
	.loc	7 642 40 prologue_end           @ ../../../../Library/StdDriver/inc\spim_hyper.h:642:40
	movw	r1, :lower16:SystemCoreClock
	movt	r1, :upper16:SystemCoreClock
	ldr	r1, [r1]
.Ltmp518:
	@DEBUG_VALUE: SPIM_HYPER_WAIT_DMMDONE:spim <- $r0
	@DEBUG_VALUE: SPIM_HYPER_WAIT_DMMDONE:u32TimeOutCount <- [DW_OP_deref] $sp
	@DEBUG_VALUE: SPIM_HYPER_SET_OPMODE:x <- 3
	@DEBUG_VALUE: SPIM_HYPER_SET_OPMODE:spim <- $r0
	.loc	7 642 22 is_stmt 0              @ ../../../../Library/StdDriver/inc\spim_hyper.h:642:22
	str	r1, [sp]
	.loc	7 644 5 is_stmt 1               @ ../../../../Library/StdDriver/inc\spim_hyper.h:644:5
	ldr	r2, [r0, #68]
	orr	r2, r2, #134217728
	str	r2, [r0, #68]
.Ltmp519:
.LBB14_1:                               @ =>This Inner Loop Header: Depth=1
	@DEBUG_VALUE: SPIM_HYPER_SET_OPMODE:spim <- $r0
	@DEBUG_VALUE: SPIM_HYPER_SET_OPMODE:x <- 3
	@DEBUG_VALUE: SPIM_HYPER_WAIT_DMMDONE:u32TimeOutCount <- [DW_OP_deref] $sp
	@DEBUG_VALUE: SPIM_HYPER_WAIT_DMMDONE:spim <- $r0
	@DEBUG_VALUE: SPIM_HYPER_EnterDirectMapMode:spim <- $r0
	.loc	7 646 12                        @ ../../../../Library/StdDriver/inc\spim_hyper.h:646:12
	ldr	r2, [r0, #68]
	.loc	7 646 5 is_stmt 0               @ ../../../../Library/StdDriver/inc\spim_hyper.h:646:5
	lsls	r2, r2, #4
	bpl	.LBB14_9
.Ltmp520:
@ %bb.2:                                @   in Loop: Header=BB14_1 Depth=1
	@DEBUG_VALUE: SPIM_HYPER_SET_OPMODE:spim <- $r0
	@DEBUG_VALUE: SPIM_HYPER_SET_OPMODE:x <- 3
	@DEBUG_VALUE: SPIM_HYPER_WAIT_DMMDONE:u32TimeOutCount <- [DW_OP_deref] $sp
	@DEBUG_VALUE: SPIM_HYPER_WAIT_DMMDONE:spim <- $r0
	@DEBUG_VALUE: SPIM_HYPER_EnterDirectMapMode:spim <- $r0
	.loc	7 648 13 is_stmt 1              @ ../../../../Library/StdDriver/inc\spim_hyper.h:648:13
	ldr	r2, [sp]
	subs	r3, r2, #1
.Ltmp521:
	.loc	7 648 13 is_stmt 0              @ ../../../../Library/StdDriver/inc\spim_hyper.h:648:13
	cmp	r2, #2
.Ltmp522:
	@DEBUG_VALUE: SPIM_HYPER_WAIT_DMMDONE:u32TimeOutCount <- [DW_OP_constu 1, DW_OP_minus, DW_OP_stack_value] undef
	.loc	7 648 13                        @ ../../../../Library/StdDriver/inc\spim_hyper.h:648:13
	str	r3, [sp]
.Ltmp523:
	.loc	7 648 13                        @ ../../../../Library/StdDriver/inc\spim_hyper.h:648:13
	blt	.LBB14_9
.Ltmp524:
@ %bb.3:                                @   in Loop: Header=BB14_1 Depth=1
	@DEBUG_VALUE: SPIM_HYPER_SET_OPMODE:spim <- $r0
	@DEBUG_VALUE: SPIM_HYPER_SET_OPMODE:x <- 3
	@DEBUG_VALUE: SPIM_HYPER_WAIT_DMMDONE:spim <- $r0
	@DEBUG_VALUE: SPIM_HYPER_EnterDirectMapMode:spim <- $r0
	.loc	7 646 12 is_stmt 1              @ ../../../../Library/StdDriver/inc\spim_hyper.h:646:12
	ldr	r2, [r0, #68]
	.loc	7 646 5 is_stmt 0               @ ../../../../Library/StdDriver/inc\spim_hyper.h:646:5
	lsls	r2, r2, #4
	bpl	.LBB14_9
.Ltmp525:
@ %bb.4:                                @   in Loop: Header=BB14_1 Depth=1
	@DEBUG_VALUE: SPIM_HYPER_SET_OPMODE:spim <- $r0
	@DEBUG_VALUE: SPIM_HYPER_SET_OPMODE:x <- 3
	@DEBUG_VALUE: SPIM_HYPER_WAIT_DMMDONE:spim <- $r0
	@DEBUG_VALUE: SPIM_HYPER_EnterDirectMapMode:spim <- $r0
	.loc	7 648 13 is_stmt 1              @ ../../../../Library/StdDriver/inc\spim_hyper.h:648:13
	ldr	r2, [sp]
	subs	r3, r2, #1
.Ltmp526:
	.loc	7 648 13 is_stmt 0              @ ../../../../Library/StdDriver/inc\spim_hyper.h:648:13
	cmp	r2, #2
.Ltmp527:
	@DEBUG_VALUE: SPIM_HYPER_WAIT_DMMDONE:u32TimeOutCount <- [DW_OP_constu 1, DW_OP_minus, DW_OP_stack_value] undef
	.loc	7 648 13                        @ ../../../../Library/StdDriver/inc\spim_hyper.h:648:13
	str	r3, [sp]
.Ltmp528:
	.loc	7 648 13                        @ ../../../../Library/StdDriver/inc\spim_hyper.h:648:13
	blt	.LBB14_9
.Ltmp529:
@ %bb.5:                                @   in Loop: Header=BB14_1 Depth=1
	@DEBUG_VALUE: SPIM_HYPER_SET_OPMODE:spim <- $r0
	@DEBUG_VALUE: SPIM_HYPER_SET_OPMODE:x <- 3
	@DEBUG_VALUE: SPIM_HYPER_WAIT_DMMDONE:spim <- $r0
	@DEBUG_VALUE: SPIM_HYPER_EnterDirectMapMode:spim <- $r0
	.loc	7 646 12 is_stmt 1              @ ../../../../Library/StdDriver/inc\spim_hyper.h:646:12
	ldr	r2, [r0, #68]
	.loc	7 646 5 is_stmt 0               @ ../../../../Library/StdDriver/inc\spim_hyper.h:646:5
	lsls	r2, r2, #4
	bpl	.LBB14_9
.Ltmp530:
@ %bb.6:                                @   in Loop: Header=BB14_1 Depth=1
	@DEBUG_VALUE: SPIM_HYPER_SET_OPMODE:spim <- $r0
	@DEBUG_VALUE: SPIM_HYPER_SET_OPMODE:x <- 3
	@DEBUG_VALUE: SPIM_HYPER_WAIT_DMMDONE:spim <- $r0
	@DEBUG_VALUE: SPIM_HYPER_EnterDirectMapMode:spim <- $r0
	.loc	7 648 13 is_stmt 1              @ ../../../../Library/StdDriver/inc\spim_hyper.h:648:13
	ldr	r2, [sp]
	subs	r3, r2, #1
.Ltmp531:
	.loc	7 648 13 is_stmt 0              @ ../../../../Library/StdDriver/inc\spim_hyper.h:648:13
	cmp	r2, #2
.Ltmp532:
	@DEBUG_VALUE: SPIM_HYPER_WAIT_DMMDONE:u32TimeOutCount <- [DW_OP_constu 1, DW_OP_minus, DW_OP_stack_value] undef
	.loc	7 648 13                        @ ../../../../Library/StdDriver/inc\spim_hyper.h:648:13
	str	r3, [sp]
.Ltmp533:
	.loc	7 648 13                        @ ../../../../Library/StdDriver/inc\spim_hyper.h:648:13
	blt	.LBB14_9
.Ltmp534:
@ %bb.7:                                @   in Loop: Header=BB14_1 Depth=1
	@DEBUG_VALUE: SPIM_HYPER_SET_OPMODE:spim <- $r0
	@DEBUG_VALUE: SPIM_HYPER_SET_OPMODE:x <- 3
	@DEBUG_VALUE: SPIM_HYPER_WAIT_DMMDONE:spim <- $r0
	@DEBUG_VALUE: SPIM_HYPER_EnterDirectMapMode:spim <- $r0
	.loc	7 646 12 is_stmt 1              @ ../../../../Library/StdDriver/inc\spim_hyper.h:646:12
	ldr	r2, [r0, #68]
	.loc	7 646 5 is_stmt 0               @ ../../../../Library/StdDriver/inc\spim_hyper.h:646:5
	lsls	r2, r2, #4
	bpl	.LBB14_9
.Ltmp535:
@ %bb.8:                                @   in Loop: Header=BB14_1 Depth=1
	@DEBUG_VALUE: SPIM_HYPER_SET_OPMODE:spim <- $r0
	@DEBUG_VALUE: SPIM_HYPER_SET_OPMODE:x <- 3
	@DEBUG_VALUE: SPIM_HYPER_WAIT_DMMDONE:spim <- $r0
	@DEBUG_VALUE: SPIM_HYPER_EnterDirectMapMode:spim <- $r0
	.loc	7 648 13 is_stmt 1              @ ../../../../Library/StdDriver/inc\spim_hyper.h:648:13
	ldr	r2, [sp]
	subs	r2, #1
	str	r2, [sp]
.Ltmp536:
	@DEBUG_VALUE: SPIM_HYPER_WAIT_DMMDONE:u32TimeOutCount <- [DW_OP_deref] $sp
	.loc	7 648 13 is_stmt 0              @ ../../../../Library/StdDriver/inc\spim_hyper.h:648:13
	bgt	.LBB14_1
.Ltmp537:
.LBB14_9:
	@DEBUG_VALUE: SPIM_HYPER_SET_OPMODE:spim <- $r0
	@DEBUG_VALUE: SPIM_HYPER_SET_OPMODE:x <- 3
	@DEBUG_VALUE: SPIM_HYPER_WAIT_DMMDONE:spim <- $r0
	@DEBUG_VALUE: SPIM_HYPER_EnterDirectMapMode:spim <- $r0
	.loc	7 654 21 is_stmt 1              @ ../../../../Library/StdDriver/inc\spim_hyper.h:654:21
	str	r1, [sp]
.Ltmp538:
	@DEBUG_VALUE: SPIM_HYPER_WAIT_DMMDONE:u32TimeOutCount <- [DW_OP_deref] $sp
.LBB14_10:                              @ =>This Inner Loop Header: Depth=1
	@DEBUG_VALUE: SPIM_HYPER_SET_OPMODE:spim <- $r0
	@DEBUG_VALUE: SPIM_HYPER_SET_OPMODE:x <- 3
	@DEBUG_VALUE: SPIM_HYPER_WAIT_DMMDONE:u32TimeOutCount <- [DW_OP_deref] $sp
	@DEBUG_VALUE: SPIM_HYPER_WAIT_DMMDONE:spim <- $r0
	@DEBUG_VALUE: SPIM_HYPER_EnterDirectMapMode:spim <- $r0
	.loc	7 657 12                        @ ../../../../Library/StdDriver/inc\spim_hyper.h:657:12
	ldr	r1, [r0, #68]
	.loc	7 657 5 is_stmt 0               @ ../../../../Library/StdDriver/inc\spim_hyper.h:657:5
	cmp	r1, #0
	bmi	.LBB14_18
.Ltmp539:
@ %bb.11:                               @   in Loop: Header=BB14_10 Depth=1
	@DEBUG_VALUE: SPIM_HYPER_SET_OPMODE:spim <- $r0
	@DEBUG_VALUE: SPIM_HYPER_SET_OPMODE:x <- 3
	@DEBUG_VALUE: SPIM_HYPER_WAIT_DMMDONE:u32TimeOutCount <- [DW_OP_deref] $sp
	@DEBUG_VALUE: SPIM_HYPER_WAIT_DMMDONE:spim <- $r0
	@DEBUG_VALUE: SPIM_HYPER_EnterDirectMapMode:spim <- $r0
	.loc	7 659 13 is_stmt 1              @ ../../../../Library/StdDriver/inc\spim_hyper.h:659:13
	ldr	r1, [sp]
	subs	r2, r1, #1
.Ltmp540:
	.loc	7 659 13 is_stmt 0              @ ../../../../Library/StdDriver/inc\spim_hyper.h:659:13
	cmp	r1, #2
.Ltmp541:
	@DEBUG_VALUE: SPIM_HYPER_WAIT_DMMDONE:u32TimeOutCount <- [DW_OP_constu 1, DW_OP_minus, DW_OP_stack_value] undef
	.loc	7 659 13                        @ ../../../../Library/StdDriver/inc\spim_hyper.h:659:13
	str	r2, [sp]
.Ltmp542:
	.loc	7 659 13                        @ ../../../../Library/StdDriver/inc\spim_hyper.h:659:13
	blt	.LBB14_18
.Ltmp543:
@ %bb.12:                               @   in Loop: Header=BB14_10 Depth=1
	@DEBUG_VALUE: SPIM_HYPER_SET_OPMODE:spim <- $r0
	@DEBUG_VALUE: SPIM_HYPER_SET_OPMODE:x <- 3
	@DEBUG_VALUE: SPIM_HYPER_WAIT_DMMDONE:spim <- $r0
	@DEBUG_VALUE: SPIM_HYPER_EnterDirectMapMode:spim <- $r0
	.loc	7 657 12 is_stmt 1              @ ../../../../Library/StdDriver/inc\spim_hyper.h:657:12
	ldr	r1, [r0, #68]
	.loc	7 657 5 is_stmt 0               @ ../../../../Library/StdDriver/inc\spim_hyper.h:657:5
	cmp	r1, #0
	bmi	.LBB14_18
.Ltmp544:
@ %bb.13:                               @   in Loop: Header=BB14_10 Depth=1
	@DEBUG_VALUE: SPIM_HYPER_SET_OPMODE:spim <- $r0
	@DEBUG_VALUE: SPIM_HYPER_SET_OPMODE:x <- 3
	@DEBUG_VALUE: SPIM_HYPER_WAIT_DMMDONE:spim <- $r0
	@DEBUG_VALUE: SPIM_HYPER_EnterDirectMapMode:spim <- $r0
	.loc	7 659 13 is_stmt 1              @ ../../../../Library/StdDriver/inc\spim_hyper.h:659:13
	ldr	r1, [sp]
	subs	r2, r1, #1
.Ltmp545:
	.loc	7 659 13 is_stmt 0              @ ../../../../Library/StdDriver/inc\spim_hyper.h:659:13
	cmp	r1, #2
.Ltmp546:
	@DEBUG_VALUE: SPIM_HYPER_WAIT_DMMDONE:u32TimeOutCount <- [DW_OP_constu 1, DW_OP_minus, DW_OP_stack_value] undef
	.loc	7 659 13                        @ ../../../../Library/StdDriver/inc\spim_hyper.h:659:13
	str	r2, [sp]
.Ltmp547:
	.loc	7 659 13                        @ ../../../../Library/StdDriver/inc\spim_hyper.h:659:13
	blt	.LBB14_18
.Ltmp548:
@ %bb.14:                               @   in Loop: Header=BB14_10 Depth=1
	@DEBUG_VALUE: SPIM_HYPER_SET_OPMODE:spim <- $r0
	@DEBUG_VALUE: SPIM_HYPER_SET_OPMODE:x <- 3
	@DEBUG_VALUE: SPIM_HYPER_WAIT_DMMDONE:spim <- $r0
	@DEBUG_VALUE: SPIM_HYPER_EnterDirectMapMode:spim <- $r0
	.loc	7 657 12 is_stmt 1              @ ../../../../Library/StdDriver/inc\spim_hyper.h:657:12
	ldr	r1, [r0, #68]
	.loc	7 657 5 is_stmt 0               @ ../../../../Library/StdDriver/inc\spim_hyper.h:657:5
	cmp	r1, #0
	bmi	.LBB14_18
.Ltmp549:
@ %bb.15:                               @   in Loop: Header=BB14_10 Depth=1
	@DEBUG_VALUE: SPIM_HYPER_SET_OPMODE:spim <- $r0
	@DEBUG_VALUE: SPIM_HYPER_SET_OPMODE:x <- 3
	@DEBUG_VALUE: SPIM_HYPER_WAIT_DMMDONE:spim <- $r0
	@DEBUG_VALUE: SPIM_HYPER_EnterDirectMapMode:spim <- $r0
	.loc	7 659 13 is_stmt 1              @ ../../../../Library/StdDriver/inc\spim_hyper.h:659:13
	ldr	r1, [sp]
	subs	r2, r1, #1
.Ltmp550:
	.loc	7 659 13 is_stmt 0              @ ../../../../Library/StdDriver/inc\spim_hyper.h:659:13
	cmp	r1, #2
.Ltmp551:
	@DEBUG_VALUE: SPIM_HYPER_WAIT_DMMDONE:u32TimeOutCount <- [DW_OP_constu 1, DW_OP_minus, DW_OP_stack_value] undef
	.loc	7 659 13                        @ ../../../../Library/StdDriver/inc\spim_hyper.h:659:13
	str	r2, [sp]
.Ltmp552:
	.loc	7 659 13                        @ ../../../../Library/StdDriver/inc\spim_hyper.h:659:13
	blt	.LBB14_18
.Ltmp553:
@ %bb.16:                               @   in Loop: Header=BB14_10 Depth=1
	@DEBUG_VALUE: SPIM_HYPER_SET_OPMODE:spim <- $r0
	@DEBUG_VALUE: SPIM_HYPER_SET_OPMODE:x <- 3
	@DEBUG_VALUE: SPIM_HYPER_WAIT_DMMDONE:spim <- $r0
	@DEBUG_VALUE: SPIM_HYPER_EnterDirectMapMode:spim <- $r0
	.loc	7 657 12 is_stmt 1              @ ../../../../Library/StdDriver/inc\spim_hyper.h:657:12
	ldr	r1, [r0, #68]
	.loc	7 657 5 is_stmt 0               @ ../../../../Library/StdDriver/inc\spim_hyper.h:657:5
	cmp	r1, #0
	bmi	.LBB14_18
.Ltmp554:
@ %bb.17:                               @   in Loop: Header=BB14_10 Depth=1
	@DEBUG_VALUE: SPIM_HYPER_SET_OPMODE:spim <- $r0
	@DEBUG_VALUE: SPIM_HYPER_SET_OPMODE:x <- 3
	@DEBUG_VALUE: SPIM_HYPER_WAIT_DMMDONE:spim <- $r0
	@DEBUG_VALUE: SPIM_HYPER_EnterDirectMapMode:spim <- $r0
	.loc	7 659 13 is_stmt 1              @ ../../../../Library/StdDriver/inc\spim_hyper.h:659:13
	ldr	r1, [sp]
	subs	r1, #1
	str	r1, [sp]
.Ltmp555:
	@DEBUG_VALUE: SPIM_HYPER_WAIT_DMMDONE:u32TimeOutCount <- [DW_OP_deref] $sp
	.loc	7 659 13 is_stmt 0              @ ../../../../Library/StdDriver/inc\spim_hyper.h:659:13
	bgt	.LBB14_10
.Ltmp556:
.LBB14_18:
	@DEBUG_VALUE: SPIM_HYPER_SET_OPMODE:spim <- $r0
	@DEBUG_VALUE: SPIM_HYPER_SET_OPMODE:x <- 3
	@DEBUG_VALUE: SPIM_HYPER_EnterDirectMapMode:spim <- $r0
	.loc	7 716 27 is_stmt 1              @ ../../../../Library/StdDriver/inc\spim_hyper.h:716:27
	ldr	r1, [r0]
	.loc	7 716 59 is_stmt 0              @ ../../../../Library/StdDriver/inc\spim_hyper.h:716:59
	orr	r1, r1, #12582912
	.loc	7 716 17                        @ ../../../../Library/StdDriver/inc\spim_hyper.h:716:17
	str	r1, [r0]
.Ltmp557:
	.loc	5 513 1 epilogue_begin is_stmt 1 @ ../../../../Library/StdDriver/src/spim_hyper.c:513:1
	add	sp, #4
	bx	lr
.Ltmp558:
.Lfunc_end14:
	.size	SPIM_HYPER_EnterDirectMapMode, .Lfunc_end14-SPIM_HYPER_EnterDirectMapMode
	.cfi_endproc
	.cantunwind
	.fnend
                                        @ -- End function
	.section	.text.SPIM_HYPER_ExitDirectMapMode,"ax",%progbits
	.hidden	SPIM_HYPER_ExitDirectMapMode    @ -- Begin function SPIM_HYPER_ExitDirectMapMode
	.globl	SPIM_HYPER_ExitDirectMapMode
	.p2align	2
	.type	SPIM_HYPER_ExitDirectMapMode,%function
	.code	16                              @ @SPIM_HYPER_ExitDirectMapMode
	.thumb_func
SPIM_HYPER_ExitDirectMapMode:
.Lfunc_begin15:
	.loc	5 522 0                         @ ../../../../Library/StdDriver/src/spim_hyper.c:522:0
	.fnstart
	.cfi_startproc
@ %bb.0:
	@DEBUG_VALUE: SPIM_HYPER_ExitDirectMapMode:spim <- $r0
	.pad	#4
	sub	sp, #4
	.cfi_def_cfa_offset 4
.Ltmp559:
	.loc	7 642 40 prologue_end           @ ../../../../Library/StdDriver/inc\spim_hyper.h:642:40
	movw	r1, :lower16:SystemCoreClock
	movt	r1, :upper16:SystemCoreClock
	ldr	r1, [r1]
.Ltmp560:
	@DEBUG_VALUE: SPIM_HYPER_WAIT_DMMDONE:spim <- $r0
	@DEBUG_VALUE: SPIM_HYPER_WAIT_DMMDONE:u32TimeOutCount <- [DW_OP_deref] $sp
	@DEBUG_VALUE: SPIM_HYPER_SET_OPMODE:x <- 0
	@DEBUG_VALUE: SPIM_HYPER_SET_OPMODE:spim <- $r0
	.loc	7 642 22 is_stmt 0              @ ../../../../Library/StdDriver/inc\spim_hyper.h:642:22
	str	r1, [sp]
	.loc	7 644 5 is_stmt 1               @ ../../../../Library/StdDriver/inc\spim_hyper.h:644:5
	ldr	r2, [r0, #68]
	orr	r2, r2, #134217728
	str	r2, [r0, #68]
.Ltmp561:
.LBB15_1:                               @ =>This Inner Loop Header: Depth=1
	@DEBUG_VALUE: SPIM_HYPER_SET_OPMODE:spim <- $r0
	@DEBUG_VALUE: SPIM_HYPER_SET_OPMODE:x <- 0
	@DEBUG_VALUE: SPIM_HYPER_WAIT_DMMDONE:u32TimeOutCount <- [DW_OP_deref] $sp
	@DEBUG_VALUE: SPIM_HYPER_WAIT_DMMDONE:spim <- $r0
	@DEBUG_VALUE: SPIM_HYPER_ExitDirectMapMode:spim <- $r0
	.loc	7 646 12                        @ ../../../../Library/StdDriver/inc\spim_hyper.h:646:12
	ldr	r2, [r0, #68]
	.loc	7 646 5 is_stmt 0               @ ../../../../Library/StdDriver/inc\spim_hyper.h:646:5
	lsls	r2, r2, #4
	bpl	.LBB15_9
.Ltmp562:
@ %bb.2:                                @   in Loop: Header=BB15_1 Depth=1
	@DEBUG_VALUE: SPIM_HYPER_SET_OPMODE:spim <- $r0
	@DEBUG_VALUE: SPIM_HYPER_SET_OPMODE:x <- 0
	@DEBUG_VALUE: SPIM_HYPER_WAIT_DMMDONE:u32TimeOutCount <- [DW_OP_deref] $sp
	@DEBUG_VALUE: SPIM_HYPER_WAIT_DMMDONE:spim <- $r0
	@DEBUG_VALUE: SPIM_HYPER_ExitDirectMapMode:spim <- $r0
	.loc	7 648 13 is_stmt 1              @ ../../../../Library/StdDriver/inc\spim_hyper.h:648:13
	ldr	r2, [sp]
	subs	r3, r2, #1
.Ltmp563:
	.loc	7 648 13 is_stmt 0              @ ../../../../Library/StdDriver/inc\spim_hyper.h:648:13
	cmp	r2, #2
.Ltmp564:
	@DEBUG_VALUE: SPIM_HYPER_WAIT_DMMDONE:u32TimeOutCount <- [DW_OP_constu 1, DW_OP_minus, DW_OP_stack_value] undef
	.loc	7 648 13                        @ ../../../../Library/StdDriver/inc\spim_hyper.h:648:13
	str	r3, [sp]
.Ltmp565:
	.loc	7 648 13                        @ ../../../../Library/StdDriver/inc\spim_hyper.h:648:13
	blt	.LBB15_9
.Ltmp566:
@ %bb.3:                                @   in Loop: Header=BB15_1 Depth=1
	@DEBUG_VALUE: SPIM_HYPER_SET_OPMODE:spim <- $r0
	@DEBUG_VALUE: SPIM_HYPER_SET_OPMODE:x <- 0
	@DEBUG_VALUE: SPIM_HYPER_WAIT_DMMDONE:spim <- $r0
	@DEBUG_VALUE: SPIM_HYPER_ExitDirectMapMode:spim <- $r0
	.loc	7 646 12 is_stmt 1              @ ../../../../Library/StdDriver/inc\spim_hyper.h:646:12
	ldr	r2, [r0, #68]
	.loc	7 646 5 is_stmt 0               @ ../../../../Library/StdDriver/inc\spim_hyper.h:646:5
	lsls	r2, r2, #4
	bpl	.LBB15_9
.Ltmp567:
@ %bb.4:                                @   in Loop: Header=BB15_1 Depth=1
	@DEBUG_VALUE: SPIM_HYPER_SET_OPMODE:spim <- $r0
	@DEBUG_VALUE: SPIM_HYPER_SET_OPMODE:x <- 0
	@DEBUG_VALUE: SPIM_HYPER_WAIT_DMMDONE:spim <- $r0
	@DEBUG_VALUE: SPIM_HYPER_ExitDirectMapMode:spim <- $r0
	.loc	7 648 13 is_stmt 1              @ ../../../../Library/StdDriver/inc\spim_hyper.h:648:13
	ldr	r2, [sp]
	subs	r3, r2, #1
.Ltmp568:
	.loc	7 648 13 is_stmt 0              @ ../../../../Library/StdDriver/inc\spim_hyper.h:648:13
	cmp	r2, #2
.Ltmp569:
	@DEBUG_VALUE: SPIM_HYPER_WAIT_DMMDONE:u32TimeOutCount <- [DW_OP_constu 1, DW_OP_minus, DW_OP_stack_value] undef
	.loc	7 648 13                        @ ../../../../Library/StdDriver/inc\spim_hyper.h:648:13
	str	r3, [sp]
.Ltmp570:
	.loc	7 648 13                        @ ../../../../Library/StdDriver/inc\spim_hyper.h:648:13
	blt	.LBB15_9
.Ltmp571:
@ %bb.5:                                @   in Loop: Header=BB15_1 Depth=1
	@DEBUG_VALUE: SPIM_HYPER_SET_OPMODE:spim <- $r0
	@DEBUG_VALUE: SPIM_HYPER_SET_OPMODE:x <- 0
	@DEBUG_VALUE: SPIM_HYPER_WAIT_DMMDONE:spim <- $r0
	@DEBUG_VALUE: SPIM_HYPER_ExitDirectMapMode:spim <- $r0
	.loc	7 646 12 is_stmt 1              @ ../../../../Library/StdDriver/inc\spim_hyper.h:646:12
	ldr	r2, [r0, #68]
	.loc	7 646 5 is_stmt 0               @ ../../../../Library/StdDriver/inc\spim_hyper.h:646:5
	lsls	r2, r2, #4
	bpl	.LBB15_9
.Ltmp572:
@ %bb.6:                                @   in Loop: Header=BB15_1 Depth=1
	@DEBUG_VALUE: SPIM_HYPER_SET_OPMODE:spim <- $r0
	@DEBUG_VALUE: SPIM_HYPER_SET_OPMODE:x <- 0
	@DEBUG_VALUE: SPIM_HYPER_WAIT_DMMDONE:spim <- $r0
	@DEBUG_VALUE: SPIM_HYPER_ExitDirectMapMode:spim <- $r0
	.loc	7 648 13 is_stmt 1              @ ../../../../Library/StdDriver/inc\spim_hyper.h:648:13
	ldr	r2, [sp]
	subs	r3, r2, #1
.Ltmp573:
	.loc	7 648 13 is_stmt 0              @ ../../../../Library/StdDriver/inc\spim_hyper.h:648:13
	cmp	r2, #2
.Ltmp574:
	@DEBUG_VALUE: SPIM_HYPER_WAIT_DMMDONE:u32TimeOutCount <- [DW_OP_constu 1, DW_OP_minus, DW_OP_stack_value] undef
	.loc	7 648 13                        @ ../../../../Library/StdDriver/inc\spim_hyper.h:648:13
	str	r3, [sp]
.Ltmp575:
	.loc	7 648 13                        @ ../../../../Library/StdDriver/inc\spim_hyper.h:648:13
	blt	.LBB15_9
.Ltmp576:
@ %bb.7:                                @   in Loop: Header=BB15_1 Depth=1
	@DEBUG_VALUE: SPIM_HYPER_SET_OPMODE:spim <- $r0
	@DEBUG_VALUE: SPIM_HYPER_SET_OPMODE:x <- 0
	@DEBUG_VALUE: SPIM_HYPER_WAIT_DMMDONE:spim <- $r0
	@DEBUG_VALUE: SPIM_HYPER_ExitDirectMapMode:spim <- $r0
	.loc	7 646 12 is_stmt 1              @ ../../../../Library/StdDriver/inc\spim_hyper.h:646:12
	ldr	r2, [r0, #68]
	.loc	7 646 5 is_stmt 0               @ ../../../../Library/StdDriver/inc\spim_hyper.h:646:5
	lsls	r2, r2, #4
	bpl	.LBB15_9
.Ltmp577:
@ %bb.8:                                @   in Loop: Header=BB15_1 Depth=1
	@DEBUG_VALUE: SPIM_HYPER_SET_OPMODE:spim <- $r0
	@DEBUG_VALUE: SPIM_HYPER_SET_OPMODE:x <- 0
	@DEBUG_VALUE: SPIM_HYPER_WAIT_DMMDONE:spim <- $r0
	@DEBUG_VALUE: SPIM_HYPER_ExitDirectMapMode:spim <- $r0
	.loc	7 648 13 is_stmt 1              @ ../../../../Library/StdDriver/inc\spim_hyper.h:648:13
	ldr	r2, [sp]
	subs	r2, #1
	str	r2, [sp]
.Ltmp578:
	@DEBUG_VALUE: SPIM_HYPER_WAIT_DMMDONE:u32TimeOutCount <- [DW_OP_deref] $sp
	.loc	7 648 13 is_stmt 0              @ ../../../../Library/StdDriver/inc\spim_hyper.h:648:13
	bgt	.LBB15_1
.Ltmp579:
.LBB15_9:
	@DEBUG_VALUE: SPIM_HYPER_SET_OPMODE:spim <- $r0
	@DEBUG_VALUE: SPIM_HYPER_SET_OPMODE:x <- 0
	@DEBUG_VALUE: SPIM_HYPER_WAIT_DMMDONE:spim <- $r0
	@DEBUG_VALUE: SPIM_HYPER_ExitDirectMapMode:spim <- $r0
	.loc	7 654 21 is_stmt 1              @ ../../../../Library/StdDriver/inc\spim_hyper.h:654:21
	str	r1, [sp]
.Ltmp580:
	@DEBUG_VALUE: SPIM_HYPER_WAIT_DMMDONE:u32TimeOutCount <- [DW_OP_deref] $sp
.LBB15_10:                              @ =>This Inner Loop Header: Depth=1
	@DEBUG_VALUE: SPIM_HYPER_SET_OPMODE:spim <- $r0
	@DEBUG_VALUE: SPIM_HYPER_SET_OPMODE:x <- 0
	@DEBUG_VALUE: SPIM_HYPER_WAIT_DMMDONE:u32TimeOutCount <- [DW_OP_deref] $sp
	@DEBUG_VALUE: SPIM_HYPER_WAIT_DMMDONE:spim <- $r0
	@DEBUG_VALUE: SPIM_HYPER_ExitDirectMapMode:spim <- $r0
	.loc	7 657 12                        @ ../../../../Library/StdDriver/inc\spim_hyper.h:657:12
	ldr	r1, [r0, #68]
	.loc	7 657 5 is_stmt 0               @ ../../../../Library/StdDriver/inc\spim_hyper.h:657:5
	cmp	r1, #0
	bmi	.LBB15_18
.Ltmp581:
@ %bb.11:                               @   in Loop: Header=BB15_10 Depth=1
	@DEBUG_VALUE: SPIM_HYPER_SET_OPMODE:spim <- $r0
	@DEBUG_VALUE: SPIM_HYPER_SET_OPMODE:x <- 0
	@DEBUG_VALUE: SPIM_HYPER_WAIT_DMMDONE:u32TimeOutCount <- [DW_OP_deref] $sp
	@DEBUG_VALUE: SPIM_HYPER_WAIT_DMMDONE:spim <- $r0
	@DEBUG_VALUE: SPIM_HYPER_ExitDirectMapMode:spim <- $r0
	.loc	7 659 13 is_stmt 1              @ ../../../../Library/StdDriver/inc\spim_hyper.h:659:13
	ldr	r1, [sp]
	subs	r2, r1, #1
.Ltmp582:
	.loc	7 659 13 is_stmt 0              @ ../../../../Library/StdDriver/inc\spim_hyper.h:659:13
	cmp	r1, #2
.Ltmp583:
	@DEBUG_VALUE: SPIM_HYPER_WAIT_DMMDONE:u32TimeOutCount <- [DW_OP_constu 1, DW_OP_minus, DW_OP_stack_value] undef
	.loc	7 659 13                        @ ../../../../Library/StdDriver/inc\spim_hyper.h:659:13
	str	r2, [sp]
.Ltmp584:
	.loc	7 659 13                        @ ../../../../Library/StdDriver/inc\spim_hyper.h:659:13
	blt	.LBB15_18
.Ltmp585:
@ %bb.12:                               @   in Loop: Header=BB15_10 Depth=1
	@DEBUG_VALUE: SPIM_HYPER_SET_OPMODE:spim <- $r0
	@DEBUG_VALUE: SPIM_HYPER_SET_OPMODE:x <- 0
	@DEBUG_VALUE: SPIM_HYPER_WAIT_DMMDONE:spim <- $r0
	@DEBUG_VALUE: SPIM_HYPER_ExitDirectMapMode:spim <- $r0
	.loc	7 657 12 is_stmt 1              @ ../../../../Library/StdDriver/inc\spim_hyper.h:657:12
	ldr	r1, [r0, #68]
	.loc	7 657 5 is_stmt 0               @ ../../../../Library/StdDriver/inc\spim_hyper.h:657:5
	cmp	r1, #0
	bmi	.LBB15_18
.Ltmp586:
@ %bb.13:                               @   in Loop: Header=BB15_10 Depth=1
	@DEBUG_VALUE: SPIM_HYPER_SET_OPMODE:spim <- $r0
	@DEBUG_VALUE: SPIM_HYPER_SET_OPMODE:x <- 0
	@DEBUG_VALUE: SPIM_HYPER_WAIT_DMMDONE:spim <- $r0
	@DEBUG_VALUE: SPIM_HYPER_ExitDirectMapMode:spim <- $r0
	.loc	7 659 13 is_stmt 1              @ ../../../../Library/StdDriver/inc\spim_hyper.h:659:13
	ldr	r1, [sp]
	subs	r2, r1, #1
.Ltmp587:
	.loc	7 659 13 is_stmt 0              @ ../../../../Library/StdDriver/inc\spim_hyper.h:659:13
	cmp	r1, #2
.Ltmp588:
	@DEBUG_VALUE: SPIM_HYPER_WAIT_DMMDONE:u32TimeOutCount <- [DW_OP_constu 1, DW_OP_minus, DW_OP_stack_value] undef
	.loc	7 659 13                        @ ../../../../Library/StdDriver/inc\spim_hyper.h:659:13
	str	r2, [sp]
.Ltmp589:
	.loc	7 659 13                        @ ../../../../Library/StdDriver/inc\spim_hyper.h:659:13
	blt	.LBB15_18
.Ltmp590:
@ %bb.14:                               @   in Loop: Header=BB15_10 Depth=1
	@DEBUG_VALUE: SPIM_HYPER_SET_OPMODE:spim <- $r0
	@DEBUG_VALUE: SPIM_HYPER_SET_OPMODE:x <- 0
	@DEBUG_VALUE: SPIM_HYPER_WAIT_DMMDONE:spim <- $r0
	@DEBUG_VALUE: SPIM_HYPER_ExitDirectMapMode:spim <- $r0
	.loc	7 657 12 is_stmt 1              @ ../../../../Library/StdDriver/inc\spim_hyper.h:657:12
	ldr	r1, [r0, #68]
	.loc	7 657 5 is_stmt 0               @ ../../../../Library/StdDriver/inc\spim_hyper.h:657:5
	cmp	r1, #0
	bmi	.LBB15_18
.Ltmp591:
@ %bb.15:                               @   in Loop: Header=BB15_10 Depth=1
	@DEBUG_VALUE: SPIM_HYPER_SET_OPMODE:spim <- $r0
	@DEBUG_VALUE: SPIM_HYPER_SET_OPMODE:x <- 0
	@DEBUG_VALUE: SPIM_HYPER_WAIT_DMMDONE:spim <- $r0
	@DEBUG_VALUE: SPIM_HYPER_ExitDirectMapMode:spim <- $r0
	.loc	7 659 13 is_stmt 1              @ ../../../../Library/StdDriver/inc\spim_hyper.h:659:13
	ldr	r1, [sp]
	subs	r2, r1, #1
.Ltmp592:
	.loc	7 659 13 is_stmt 0              @ ../../../../Library/StdDriver/inc\spim_hyper.h:659:13
	cmp	r1, #2
.Ltmp593:
	@DEBUG_VALUE: SPIM_HYPER_WAIT_DMMDONE:u32TimeOutCount <- [DW_OP_constu 1, DW_OP_minus, DW_OP_stack_value] undef
	.loc	7 659 13                        @ ../../../../Library/StdDriver/inc\spim_hyper.h:659:13
	str	r2, [sp]
.Ltmp594:
	.loc	7 659 13                        @ ../../../../Library/StdDriver/inc\spim_hyper.h:659:13
	blt	.LBB15_18
.Ltmp595:
@ %bb.16:                               @   in Loop: Header=BB15_10 Depth=1
	@DEBUG_VALUE: SPIM_HYPER_SET_OPMODE:spim <- $r0
	@DEBUG_VALUE: SPIM_HYPER_SET_OPMODE:x <- 0
	@DEBUG_VALUE: SPIM_HYPER_WAIT_DMMDONE:spim <- $r0
	@DEBUG_VALUE: SPIM_HYPER_ExitDirectMapMode:spim <- $r0
	.loc	7 657 12 is_stmt 1              @ ../../../../Library/StdDriver/inc\spim_hyper.h:657:12
	ldr	r1, [r0, #68]
	.loc	7 657 5 is_stmt 0               @ ../../../../Library/StdDriver/inc\spim_hyper.h:657:5
	cmp	r1, #0
	bmi	.LBB15_18
.Ltmp596:
@ %bb.17:                               @   in Loop: Header=BB15_10 Depth=1
	@DEBUG_VALUE: SPIM_HYPER_SET_OPMODE:spim <- $r0
	@DEBUG_VALUE: SPIM_HYPER_SET_OPMODE:x <- 0
	@DEBUG_VALUE: SPIM_HYPER_WAIT_DMMDONE:spim <- $r0
	@DEBUG_VALUE: SPIM_HYPER_ExitDirectMapMode:spim <- $r0
	.loc	7 659 13 is_stmt 1              @ ../../../../Library/StdDriver/inc\spim_hyper.h:659:13
	ldr	r1, [sp]
	subs	r1, #1
	str	r1, [sp]
.Ltmp597:
	@DEBUG_VALUE: SPIM_HYPER_WAIT_DMMDONE:u32TimeOutCount <- [DW_OP_deref] $sp
	.loc	7 659 13 is_stmt 0              @ ../../../../Library/StdDriver/inc\spim_hyper.h:659:13
	bgt	.LBB15_10
.Ltmp598:
.LBB15_18:
	@DEBUG_VALUE: SPIM_HYPER_SET_OPMODE:spim <- $r0
	@DEBUG_VALUE: SPIM_HYPER_SET_OPMODE:x <- 0
	@DEBUG_VALUE: SPIM_HYPER_ExitDirectMapMode:spim <- $r0
	.loc	7 716 27 is_stmt 1              @ ../../../../Library/StdDriver/inc\spim_hyper.h:716:27
	ldr	r1, [r0]
	.loc	7 716 32 is_stmt 0              @ ../../../../Library/StdDriver/inc\spim_hyper.h:716:32
	bic	r1, r1, #12582912
	.loc	7 716 17                        @ ../../../../Library/StdDriver/inc\spim_hyper.h:716:17
	str	r1, [r0]
.Ltmp599:
	.loc	5 524 1 epilogue_begin is_stmt 1 @ ../../../../Library/StdDriver/src/spim_hyper.c:524:1
	add	sp, #4
	bx	lr
.Ltmp600:
.Lfunc_end15:
	.size	SPIM_HYPER_ExitDirectMapMode, .Lfunc_end15-SPIM_HYPER_ExitDirectMapMode
	.cfi_endproc
	.cantunwind
	.fnend
                                        @ -- End function
	.section	.text.SPIM_HYPER_INIT_DLL,"ax",%progbits
	.hidden	SPIM_HYPER_INIT_DLL             @ -- Begin function SPIM_HYPER_INIT_DLL
	.globl	SPIM_HYPER_INIT_DLL
	.p2align	2
	.type	SPIM_HYPER_INIT_DLL,%function
	.code	16                              @ @SPIM_HYPER_INIT_DLL
	.thumb_func
SPIM_HYPER_INIT_DLL:
.Lfunc_begin16:
	.loc	5 535 0                         @ ../../../../Library/StdDriver/src/spim_hyper.c:535:0
	.fnstart
	.cfi_startproc
@ %bb.0:
	@DEBUG_VALUE: SPIM_HYPER_INIT_DLL:spim <- $r0
	.save	{r4, r5, r6, r7, r8, r9, r10, lr}
	push.w	{r4, r5, r6, r7, r8, r9, r10, lr}
	.cfi_def_cfa_offset 32
	.cfi_offset lr, -4
	.cfi_offset r10, -8
	.cfi_offset r9, -12
	.cfi_offset r8, -16
	.cfi_offset r7, -20
	.cfi_offset r6, -24
	.cfi_offset r5, -28
	.cfi_offset r4, -32
	.pad	#8
	sub	sp, #8
	.cfi_def_cfa_offset 40
	mov	r4, r0
.Ltmp601:
	@DEBUG_VALUE: SPIM_HYPER_INIT_DLL:spim <- $r4
	@DEBUG_VALUE: SPIM_HYPER_INIT_DLL:i32TimeoutCount <- [DW_OP_plus_uconst 4, DW_OP_deref] $sp
	@DEBUG_VALUE: SPIM_HYPER_INIT_DLL:spim <- $r4
	.loc	5 537 28 prologue_end           @ ../../../../Library/StdDriver/src/spim_hyper.c:537:28
	bl	CLK_GetSCLKFreq
.Ltmp602:
	.loc	5 537 49 is_stmt 0              @ ../../../../Library/StdDriver/src/spim_hyper.c:537:49
	ldr	r1, [r4, #4]
	movw	r2, #49999
	mvn	r3, #1
	.loc	5 537 77                        @ ../../../../Library/StdDriver/src/spim_hyper.c:537:77
	and.w	r1, r3, r1, lsr #15
	.loc	5 550 24 is_stmt 1              @ ../../../../Library/StdDriver/src/spim_hyper.c:550:24
	ldr	r7, [r4, #4]
.Ltmp603:
	@DEBUG_VALUE: SPIM_HYPER_INIT_DLL:u32Div <- undef
	.loc	5 537 46                        @ ../../../../Library/StdDriver/src/spim_hyper.c:537:46
	udiv	r8, r0, r1
.Ltmp604:
	@DEBUG_VALUE: SPIM_HYPER_INIT_DLL:u32BusClkHz <- $r8
	.loc	5 0 46 is_stmt 0                @ ../../../../Library/StdDriver/src/spim_hyper.c:0:46
	movw	r0, #51712
	movw	r1, #19999
.Ltmp605:
	@DEBUG_VALUE: SPIM_HYPER_INIT_DLL:u32DllTrimUs <- 20
	@DEBUG_VALUE: SPIM_HYPER_INIT_DLL:u32DllClkOnUs <- 20
	@DEBUG_VALUE: SPIM_HYPER_INIT_DLL:u32DllValidUs <- 50
	@DEBUG_VALUE: SPIM_HYPER_INIT_DLL:u32DllLockUs <- 20
	movt	r0, #15258
	.loc	5 538 38 is_stmt 1              @ ../../../../Library/StdDriver/src/spim_hyper.c:538:38
	udiv	r0, r0, r8
.Ltmp606:
	@DEBUG_VALUE: SPIM_HYPER_INIT_DLL:u32ClkNs <- $r0
	.loc	5 554 30                        @ ../../../../Library/StdDriver/src/spim_hyper.c:554:30
	cmp.w	r7, #65536
	.loc	5 545 28                        @ ../../../../Library/StdDriver/src/spim_hyper.c:545:28
	add	r1, r0
.Ltmp607:
	@DEBUG_VALUE: SPIM_HYPER_INIT_DLL:u32DLLLKNUM <- undef
	.loc	5 546 28                        @ ../../../../Library/StdDriver/src/spim_hyper.c:546:28
	add	r2, r0
.Ltmp608:
	@DEBUG_VALUE: SPIM_HYPER_INIT_DLL:u32TRIMNUM <- undef
	@DEBUG_VALUE: SPIM_HYPER_INIT_DLL:u32CLKONNUM <- undef
	@DEBUG_VALUE: SPIM_HYPER_INIT_DLL:u32DLLOVNUM <- undef
	.loc	5 554 30                        @ ../../../../Library/StdDriver/src/spim_hyper.c:554:30
	bhs	.LBB16_2
.Ltmp609:
@ %bb.1:
	@DEBUG_VALUE: SPIM_HYPER_INIT_DLL:u32ClkNs <- $r0
	@DEBUG_VALUE: SPIM_HYPER_INIT_DLL:u32DllLockUs <- 20
	@DEBUG_VALUE: SPIM_HYPER_INIT_DLL:u32DllValidUs <- 50
	@DEBUG_VALUE: SPIM_HYPER_INIT_DLL:u32DllClkOnUs <- 20
	@DEBUG_VALUE: SPIM_HYPER_INIT_DLL:u32DllTrimUs <- 20
	@DEBUG_VALUE: SPIM_HYPER_INIT_DLL:u32BusClkHz <- $r8
	@DEBUG_VALUE: SPIM_HYPER_INIT_DLL:i32TimeoutCount <- [DW_OP_plus_uconst 4, DW_OP_deref] $sp
	@DEBUG_VALUE: SPIM_HYPER_INIT_DLL:spim <- $r4
	.loc	5 0 30 is_stmt 0                @ ../../../../Library/StdDriver/src/spim_hyper.c:0:30
	mov.w	r10, #0
	.loc	5 554 30                        @ ../../../../Library/StdDriver/src/spim_hyper.c:554:30
	b	.LBB16_5
.Ltmp610:
.LBB16_2:
	@DEBUG_VALUE: SPIM_HYPER_INIT_DLL:u32ClkNs <- $r0
	@DEBUG_VALUE: SPIM_HYPER_INIT_DLL:u32DllLockUs <- 20
	@DEBUG_VALUE: SPIM_HYPER_INIT_DLL:u32DllValidUs <- 50
	@DEBUG_VALUE: SPIM_HYPER_INIT_DLL:u32DllClkOnUs <- 20
	@DEBUG_VALUE: SPIM_HYPER_INIT_DLL:u32DllTrimUs <- 20
	@DEBUG_VALUE: SPIM_HYPER_INIT_DLL:u32BusClkHz <- $r8
	@DEBUG_VALUE: SPIM_HYPER_INIT_DLL:i32TimeoutCount <- [DW_OP_plus_uconst 4, DW_OP_deref] $sp
	@DEBUG_VALUE: SPIM_HYPER_INIT_DLL:spim <- $r4
	.loc	5 0 30                          @ ../../../../Library/StdDriver/src/spim_hyper.c:0:30
	and.w	r3, r3, r7, lsr #15
	.loc	5 554 50                        @ ../../../../Library/StdDriver/src/spim_hyper.c:554:50
	cmp	r3, #2
	bne	.LBB16_4
.Ltmp611:
@ %bb.3:
	@DEBUG_VALUE: SPIM_HYPER_INIT_DLL:u32ClkNs <- $r0
	@DEBUG_VALUE: SPIM_HYPER_INIT_DLL:u32DllLockUs <- 20
	@DEBUG_VALUE: SPIM_HYPER_INIT_DLL:u32DllValidUs <- 50
	@DEBUG_VALUE: SPIM_HYPER_INIT_DLL:u32DllClkOnUs <- 20
	@DEBUG_VALUE: SPIM_HYPER_INIT_DLL:u32DllTrimUs <- 20
	@DEBUG_VALUE: SPIM_HYPER_INIT_DLL:u32BusClkHz <- $r8
	@DEBUG_VALUE: SPIM_HYPER_INIT_DLL:i32TimeoutCount <- [DW_OP_plus_uconst 4, DW_OP_deref] $sp
	@DEBUG_VALUE: SPIM_HYPER_INIT_DLL:spim <- $r4
	.loc	5 0 50                          @ ../../../../Library/StdDriver/src/spim_hyper.c:0:50
	mov.w	r10, #1048576
	.loc	5 554 50                        @ ../../../../Library/StdDriver/src/spim_hyper.c:554:50
	b	.LBB16_5
.Ltmp612:
.LBB16_4:
	@DEBUG_VALUE: SPIM_HYPER_INIT_DLL:u32ClkNs <- $r0
	@DEBUG_VALUE: SPIM_HYPER_INIT_DLL:u32DllLockUs <- 20
	@DEBUG_VALUE: SPIM_HYPER_INIT_DLL:u32DllValidUs <- 50
	@DEBUG_VALUE: SPIM_HYPER_INIT_DLL:u32DllClkOnUs <- 20
	@DEBUG_VALUE: SPIM_HYPER_INIT_DLL:u32DllTrimUs <- 20
	@DEBUG_VALUE: SPIM_HYPER_INIT_DLL:u32BusClkHz <- $r8
	@DEBUG_VALUE: SPIM_HYPER_INIT_DLL:i32TimeoutCount <- [DW_OP_plus_uconst 4, DW_OP_deref] $sp
	@DEBUG_VALUE: SPIM_HYPER_INIT_DLL:spim <- $r4
	.loc	5 0 50                          @ ../../../../Library/StdDriver/src/spim_hyper.c:0:50
	mov.w	r10, #3145728
	.loc	5 554 70                        @ ../../../../Library/StdDriver/src/spim_hyper.c:554:70
	cmp	r3, #4
	it	eq
	moveq.w	r10, #2097152
.Ltmp613:
.LBB16_5:
	@DEBUG_VALUE: SPIM_HYPER_INIT_DLL:u32ClkNs <- $r0
	@DEBUG_VALUE: SPIM_HYPER_INIT_DLL:u32DllLockUs <- 20
	@DEBUG_VALUE: SPIM_HYPER_INIT_DLL:u32DllValidUs <- 50
	@DEBUG_VALUE: SPIM_HYPER_INIT_DLL:u32DllClkOnUs <- 20
	@DEBUG_VALUE: SPIM_HYPER_INIT_DLL:u32DllTrimUs <- 20
	@DEBUG_VALUE: SPIM_HYPER_INIT_DLL:u32BusClkHz <- $r8
	@DEBUG_VALUE: SPIM_HYPER_INIT_DLL:i32TimeoutCount <- [DW_OP_plus_uconst 4, DW_OP_deref] $sp
	@DEBUG_VALUE: SPIM_HYPER_INIT_DLL:spim <- $r4
	.loc	5 0 70                          @ ../../../../Library/StdDriver/src/spim_hyper.c:0:70
	udiv	r3, r1, r0
.Ltmp614:
	@DEBUG_VALUE: SPIM_HYPER_INIT_DLL:u32TRIMNUM <- $r3
	@DEBUG_VALUE: SPIM_HYPER_INIT_DLL:u32CLKONNUM <- $r3
	@DEBUG_VALUE: SPIM_HYPER_INIT_DLL:u32DLLLKNUM <- $r3
	movw	r1, #256
	movw	r9, :lower16:SystemCoreClock
	movt	r1, #16384
.Ltmp615:
	@DEBUG_VALUE: SPIM_HYPER_INIT_DLL:u32DllDivCode <- $r10
	.loc	6 4332 17 is_stmt 1             @ ../../../../Library/StdDriver/inc\sys.h:4332:17
	ldr	r7, [r1]
.Ltmp616:
	@DEBUG_VALUE: SPIM_HYPER_INIT_DLL:u32RegLockLevel <- undef
	.loc	6 0 17 is_stmt 0                @ ../../../../Library/StdDriver/inc\sys.h:0:17
	udiv	lr, r2, r0
.Ltmp617:
	@DEBUG_VALUE: SPIM_HYPER_INIT_DLL:u32DLLOVNUM <- $lr
	.loc	5 557 9 is_stmt 1               @ ../../../../Library/StdDriver/src/spim_hyper.c:557:9
	lsls.w	r12, r7, #31
	movt	r9, :upper16:SystemCoreClock
	bne	.LBB16_15
.Ltmp618:
@ %bb.6:
	@DEBUG_VALUE: SPIM_HYPER_INIT_DLL:u32DLLOVNUM <- $lr
	@DEBUG_VALUE: SPIM_HYPER_INIT_DLL:u32DllDivCode <- $r10
	@DEBUG_VALUE: SPIM_HYPER_INIT_DLL:u32DLLLKNUM <- $r3
	@DEBUG_VALUE: SPIM_HYPER_INIT_DLL:u32CLKONNUM <- $r3
	@DEBUG_VALUE: SPIM_HYPER_INIT_DLL:u32TRIMNUM <- $r3
	@DEBUG_VALUE: SPIM_HYPER_INIT_DLL:u32ClkNs <- $r0
	@DEBUG_VALUE: SPIM_HYPER_INIT_DLL:u32DllLockUs <- 20
	@DEBUG_VALUE: SPIM_HYPER_INIT_DLL:u32DllValidUs <- 50
	@DEBUG_VALUE: SPIM_HYPER_INIT_DLL:u32DllClkOnUs <- 20
	@DEBUG_VALUE: SPIM_HYPER_INIT_DLL:u32DllTrimUs <- 20
	@DEBUG_VALUE: SPIM_HYPER_INIT_DLL:u32BusClkHz <- $r8
	@DEBUG_VALUE: SPIM_HYPER_INIT_DLL:i32TimeoutCount <- [DW_OP_plus_uconst 4, DW_OP_deref] $sp
	@DEBUG_VALUE: SPIM_HYPER_INIT_DLL:spim <- $r4
	.loc	6 4257 32                       @ ../../../../Library/StdDriver/inc\sys.h:4257:32
	ldr.w	r6, [r9]
.Ltmp619:
	@DEBUG_VALUE: SYS_UnlockReg:u32TimeOutCount <- $r6
	.loc	6 0 32 is_stmt 0                @ ../../../../Library/StdDriver/inc\sys.h:0:32
	movs	r7, #89
	movs	r2, #22
	movs	r0, #136
.Ltmp620:
.LBB16_7:                               @ =>This Inner Loop Header: Depth=1
	@DEBUG_VALUE: SYS_UnlockReg:u32TimeOutCount <- $r6
	@DEBUG_VALUE: SPIM_HYPER_INIT_DLL:u32DLLOVNUM <- $lr
	@DEBUG_VALUE: SPIM_HYPER_INIT_DLL:u32DllDivCode <- $r10
	@DEBUG_VALUE: SPIM_HYPER_INIT_DLL:u32DLLLKNUM <- $r3
	@DEBUG_VALUE: SPIM_HYPER_INIT_DLL:u32CLKONNUM <- $r3
	@DEBUG_VALUE: SPIM_HYPER_INIT_DLL:u32TRIMNUM <- $r3
	@DEBUG_VALUE: SPIM_HYPER_INIT_DLL:u32DllLockUs <- 20
	@DEBUG_VALUE: SPIM_HYPER_INIT_DLL:u32DllValidUs <- 50
	@DEBUG_VALUE: SPIM_HYPER_INIT_DLL:u32DllClkOnUs <- 20
	@DEBUG_VALUE: SPIM_HYPER_INIT_DLL:u32DllTrimUs <- 20
	@DEBUG_VALUE: SPIM_HYPER_INIT_DLL:u32BusClkHz <- $r8
	@DEBUG_VALUE: SPIM_HYPER_INIT_DLL:i32TimeoutCount <- [DW_OP_plus_uconst 4, DW_OP_deref] $sp
	@DEBUG_VALUE: SPIM_HYPER_INIT_DLL:spim <- $r4
	@DEBUG_VALUE: SYS_UnlockReg:u32TimeOutCount <- $r6
	.loc	6 4265 13 is_stmt 1             @ ../../../../Library/StdDriver/inc\sys.h:4265:13
	cmp	r6, #1
	.loc	6 4261 22                       @ ../../../../Library/StdDriver/inc\sys.h:4261:22
	str	r7, [r1]
	.loc	6 4262 22                       @ ../../../../Library/StdDriver/inc\sys.h:4262:22
	str	r2, [r1]
	.loc	6 4263 22                       @ ../../../../Library/StdDriver/inc\sys.h:4263:22
	str	r0, [r1]
.Ltmp621:
	@DEBUG_VALUE: SYS_UnlockReg:u32TimeOutCount <- [DW_OP_constu 1, DW_OP_minus, DW_OP_stack_value] $r6
	.loc	6 4265 13                       @ ../../../../Library/StdDriver/inc\sys.h:4265:13
	beq	.LBB16_15
.Ltmp622:
@ %bb.8:                                @   in Loop: Header=BB16_7 Depth=1
	@DEBUG_VALUE: SYS_UnlockReg:u32TimeOutCount <- [DW_OP_constu 1, DW_OP_minus, DW_OP_stack_value] $r6
	@DEBUG_VALUE: SPIM_HYPER_INIT_DLL:u32DLLOVNUM <- $lr
	@DEBUG_VALUE: SPIM_HYPER_INIT_DLL:u32DllDivCode <- $r10
	@DEBUG_VALUE: SPIM_HYPER_INIT_DLL:u32DLLLKNUM <- $r3
	@DEBUG_VALUE: SPIM_HYPER_INIT_DLL:u32CLKONNUM <- $r3
	@DEBUG_VALUE: SPIM_HYPER_INIT_DLL:u32TRIMNUM <- $r3
	@DEBUG_VALUE: SPIM_HYPER_INIT_DLL:u32DllLockUs <- 20
	@DEBUG_VALUE: SPIM_HYPER_INIT_DLL:u32DllValidUs <- 50
	@DEBUG_VALUE: SPIM_HYPER_INIT_DLL:u32DllClkOnUs <- 20
	@DEBUG_VALUE: SPIM_HYPER_INIT_DLL:u32DllTrimUs <- 20
	@DEBUG_VALUE: SPIM_HYPER_INIT_DLL:u32BusClkHz <- $r8
	@DEBUG_VALUE: SPIM_HYPER_INIT_DLL:i32TimeoutCount <- [DW_OP_plus_uconst 4, DW_OP_deref] $sp
	@DEBUG_VALUE: SPIM_HYPER_INIT_DLL:spim <- $r4
	.loc	6 4266 19                       @ ../../../../Library/StdDriver/inc\sys.h:4266:19
	ldr	r5, [r1]
.Ltmp623:
	.loc	6 4266 5 is_stmt 0              @ ../../../../Library/StdDriver/inc\sys.h:4266:5
	cbnz	r5, .LBB16_15
.Ltmp624:
@ %bb.9:                                @   in Loop: Header=BB16_7 Depth=1
	@DEBUG_VALUE: SYS_UnlockReg:u32TimeOutCount <- [DW_OP_constu 1, DW_OP_minus, DW_OP_stack_value] $r6
	@DEBUG_VALUE: SPIM_HYPER_INIT_DLL:u32DLLOVNUM <- $lr
	@DEBUG_VALUE: SPIM_HYPER_INIT_DLL:u32DllDivCode <- $r10
	@DEBUG_VALUE: SPIM_HYPER_INIT_DLL:u32DLLLKNUM <- $r3
	@DEBUG_VALUE: SPIM_HYPER_INIT_DLL:u32CLKONNUM <- $r3
	@DEBUG_VALUE: SPIM_HYPER_INIT_DLL:u32TRIMNUM <- $r3
	@DEBUG_VALUE: SPIM_HYPER_INIT_DLL:u32DllLockUs <- 20
	@DEBUG_VALUE: SPIM_HYPER_INIT_DLL:u32DllValidUs <- 50
	@DEBUG_VALUE: SPIM_HYPER_INIT_DLL:u32DllClkOnUs <- 20
	@DEBUG_VALUE: SPIM_HYPER_INIT_DLL:u32DllTrimUs <- 20
	@DEBUG_VALUE: SPIM_HYPER_INIT_DLL:u32BusClkHz <- $r8
	@DEBUG_VALUE: SPIM_HYPER_INIT_DLL:i32TimeoutCount <- [DW_OP_plus_uconst 4, DW_OP_deref] $sp
	@DEBUG_VALUE: SPIM_HYPER_INIT_DLL:spim <- $r4
	@DEBUG_VALUE: SYS_UnlockReg:u32TimeOutCount <- [DW_OP_constu 1, DW_OP_minus, DW_OP_stack_value] $r6
	.loc	6 4265 13 is_stmt 1             @ ../../../../Library/StdDriver/inc\sys.h:4265:13
	cmp	r6, #2
	.loc	6 4261 22                       @ ../../../../Library/StdDriver/inc\sys.h:4261:22
	str	r7, [r1]
	.loc	6 4262 22                       @ ../../../../Library/StdDriver/inc\sys.h:4262:22
	str	r2, [r1]
	.loc	6 4263 22                       @ ../../../../Library/StdDriver/inc\sys.h:4263:22
	str	r0, [r1]
.Ltmp625:
	@DEBUG_VALUE: SYS_UnlockReg:u32TimeOutCount <- [DW_OP_constu 2, DW_OP_minus, DW_OP_stack_value] $r6
	.loc	6 4265 13                       @ ../../../../Library/StdDriver/inc\sys.h:4265:13
	beq	.LBB16_15
.Ltmp626:
@ %bb.10:                               @   in Loop: Header=BB16_7 Depth=1
	@DEBUG_VALUE: SYS_UnlockReg:u32TimeOutCount <- [DW_OP_constu 2, DW_OP_minus, DW_OP_stack_value] $r6
	@DEBUG_VALUE: SPIM_HYPER_INIT_DLL:u32DLLOVNUM <- $lr
	@DEBUG_VALUE: SPIM_HYPER_INIT_DLL:u32DllDivCode <- $r10
	@DEBUG_VALUE: SPIM_HYPER_INIT_DLL:u32DLLLKNUM <- $r3
	@DEBUG_VALUE: SPIM_HYPER_INIT_DLL:u32CLKONNUM <- $r3
	@DEBUG_VALUE: SPIM_HYPER_INIT_DLL:u32TRIMNUM <- $r3
	@DEBUG_VALUE: SPIM_HYPER_INIT_DLL:u32DllLockUs <- 20
	@DEBUG_VALUE: SPIM_HYPER_INIT_DLL:u32DllValidUs <- 50
	@DEBUG_VALUE: SPIM_HYPER_INIT_DLL:u32DllClkOnUs <- 20
	@DEBUG_VALUE: SPIM_HYPER_INIT_DLL:u32DllTrimUs <- 20
	@DEBUG_VALUE: SPIM_HYPER_INIT_DLL:u32BusClkHz <- $r8
	@DEBUG_VALUE: SPIM_HYPER_INIT_DLL:i32TimeoutCount <- [DW_OP_plus_uconst 4, DW_OP_deref] $sp
	@DEBUG_VALUE: SPIM_HYPER_INIT_DLL:spim <- $r4
	.loc	6 4266 19                       @ ../../../../Library/StdDriver/inc\sys.h:4266:19
	ldr	r5, [r1]
.Ltmp627:
	.loc	6 4266 5 is_stmt 0              @ ../../../../Library/StdDriver/inc\sys.h:4266:5
	cbnz	r5, .LBB16_15
.Ltmp628:
@ %bb.11:                               @   in Loop: Header=BB16_7 Depth=1
	@DEBUG_VALUE: SYS_UnlockReg:u32TimeOutCount <- [DW_OP_constu 2, DW_OP_minus, DW_OP_stack_value] $r6
	@DEBUG_VALUE: SPIM_HYPER_INIT_DLL:u32DLLOVNUM <- $lr
	@DEBUG_VALUE: SPIM_HYPER_INIT_DLL:u32DllDivCode <- $r10
	@DEBUG_VALUE: SPIM_HYPER_INIT_DLL:u32DLLLKNUM <- $r3
	@DEBUG_VALUE: SPIM_HYPER_INIT_DLL:u32CLKONNUM <- $r3
	@DEBUG_VALUE: SPIM_HYPER_INIT_DLL:u32TRIMNUM <- $r3
	@DEBUG_VALUE: SPIM_HYPER_INIT_DLL:u32DllLockUs <- 20
	@DEBUG_VALUE: SPIM_HYPER_INIT_DLL:u32DllValidUs <- 50
	@DEBUG_VALUE: SPIM_HYPER_INIT_DLL:u32DllClkOnUs <- 20
	@DEBUG_VALUE: SPIM_HYPER_INIT_DLL:u32DllTrimUs <- 20
	@DEBUG_VALUE: SPIM_HYPER_INIT_DLL:u32BusClkHz <- $r8
	@DEBUG_VALUE: SPIM_HYPER_INIT_DLL:i32TimeoutCount <- [DW_OP_plus_uconst 4, DW_OP_deref] $sp
	@DEBUG_VALUE: SPIM_HYPER_INIT_DLL:spim <- $r4
	@DEBUG_VALUE: SYS_UnlockReg:u32TimeOutCount <- [DW_OP_constu 2, DW_OP_minus, DW_OP_stack_value] $r6
	.loc	6 4265 13 is_stmt 1             @ ../../../../Library/StdDriver/inc\sys.h:4265:13
	cmp	r6, #3
	.loc	6 4261 22                       @ ../../../../Library/StdDriver/inc\sys.h:4261:22
	str	r7, [r1]
	.loc	6 4262 22                       @ ../../../../Library/StdDriver/inc\sys.h:4262:22
	str	r2, [r1]
	.loc	6 4263 22                       @ ../../../../Library/StdDriver/inc\sys.h:4263:22
	str	r0, [r1]
.Ltmp629:
	@DEBUG_VALUE: SYS_UnlockReg:u32TimeOutCount <- [DW_OP_constu 3, DW_OP_minus, DW_OP_stack_value] $r6
	.loc	6 4265 13                       @ ../../../../Library/StdDriver/inc\sys.h:4265:13
	beq	.LBB16_15
.Ltmp630:
@ %bb.12:                               @   in Loop: Header=BB16_7 Depth=1
	@DEBUG_VALUE: SYS_UnlockReg:u32TimeOutCount <- [DW_OP_constu 3, DW_OP_minus, DW_OP_stack_value] $r6
	@DEBUG_VALUE: SPIM_HYPER_INIT_DLL:u32DLLOVNUM <- $lr
	@DEBUG_VALUE: SPIM_HYPER_INIT_DLL:u32DllDivCode <- $r10
	@DEBUG_VALUE: SPIM_HYPER_INIT_DLL:u32DLLLKNUM <- $r3
	@DEBUG_VALUE: SPIM_HYPER_INIT_DLL:u32CLKONNUM <- $r3
	@DEBUG_VALUE: SPIM_HYPER_INIT_DLL:u32TRIMNUM <- $r3
	@DEBUG_VALUE: SPIM_HYPER_INIT_DLL:u32DllLockUs <- 20
	@DEBUG_VALUE: SPIM_HYPER_INIT_DLL:u32DllValidUs <- 50
	@DEBUG_VALUE: SPIM_HYPER_INIT_DLL:u32DllClkOnUs <- 20
	@DEBUG_VALUE: SPIM_HYPER_INIT_DLL:u32DllTrimUs <- 20
	@DEBUG_VALUE: SPIM_HYPER_INIT_DLL:u32BusClkHz <- $r8
	@DEBUG_VALUE: SPIM_HYPER_INIT_DLL:i32TimeoutCount <- [DW_OP_plus_uconst 4, DW_OP_deref] $sp
	@DEBUG_VALUE: SPIM_HYPER_INIT_DLL:spim <- $r4
	.loc	6 4266 19                       @ ../../../../Library/StdDriver/inc\sys.h:4266:19
	ldr	r5, [r1]
.Ltmp631:
	.loc	6 4266 5 is_stmt 0              @ ../../../../Library/StdDriver/inc\sys.h:4266:5
	cbnz	r5, .LBB16_15
.Ltmp632:
@ %bb.13:                               @   in Loop: Header=BB16_7 Depth=1
	@DEBUG_VALUE: SYS_UnlockReg:u32TimeOutCount <- [DW_OP_constu 3, DW_OP_minus, DW_OP_stack_value] $r6
	@DEBUG_VALUE: SPIM_HYPER_INIT_DLL:u32DLLOVNUM <- $lr
	@DEBUG_VALUE: SPIM_HYPER_INIT_DLL:u32DllDivCode <- $r10
	@DEBUG_VALUE: SPIM_HYPER_INIT_DLL:u32DLLLKNUM <- $r3
	@DEBUG_VALUE: SPIM_HYPER_INIT_DLL:u32CLKONNUM <- $r3
	@DEBUG_VALUE: SPIM_HYPER_INIT_DLL:u32TRIMNUM <- $r3
	@DEBUG_VALUE: SPIM_HYPER_INIT_DLL:u32DllLockUs <- 20
	@DEBUG_VALUE: SPIM_HYPER_INIT_DLL:u32DllValidUs <- 50
	@DEBUG_VALUE: SPIM_HYPER_INIT_DLL:u32DllClkOnUs <- 20
	@DEBUG_VALUE: SPIM_HYPER_INIT_DLL:u32DllTrimUs <- 20
	@DEBUG_VALUE: SPIM_HYPER_INIT_DLL:u32BusClkHz <- $r8
	@DEBUG_VALUE: SPIM_HYPER_INIT_DLL:i32TimeoutCount <- [DW_OP_plus_uconst 4, DW_OP_deref] $sp
	@DEBUG_VALUE: SPIM_HYPER_INIT_DLL:spim <- $r4
	@DEBUG_VALUE: SYS_UnlockReg:u32TimeOutCount <- [DW_OP_constu 3, DW_OP_minus, DW_OP_stack_value] $r6
	.loc	6 4265 13 is_stmt 1             @ ../../../../Library/StdDriver/inc\sys.h:4265:13
	subs	r6, #4
.Ltmp633:
	@DEBUG_VALUE: SYS_UnlockReg:u32TimeOutCount <- $r6
	.loc	6 4261 22                       @ ../../../../Library/StdDriver/inc\sys.h:4261:22
	str	r7, [r1]
	.loc	6 4262 22                       @ ../../../../Library/StdDriver/inc\sys.h:4262:22
	str	r2, [r1]
	.loc	6 4263 22                       @ ../../../../Library/StdDriver/inc\sys.h:4263:22
	str	r0, [r1]
	.loc	6 4265 13                       @ ../../../../Library/StdDriver/inc\sys.h:4265:13
	beq	.LBB16_15
.Ltmp634:
@ %bb.14:                               @   in Loop: Header=BB16_7 Depth=1
	@DEBUG_VALUE: SYS_UnlockReg:u32TimeOutCount <- $r6
	@DEBUG_VALUE: SPIM_HYPER_INIT_DLL:u32DLLOVNUM <- $lr
	@DEBUG_VALUE: SPIM_HYPER_INIT_DLL:u32DllDivCode <- $r10
	@DEBUG_VALUE: SPIM_HYPER_INIT_DLL:u32DLLLKNUM <- $r3
	@DEBUG_VALUE: SPIM_HYPER_INIT_DLL:u32CLKONNUM <- $r3
	@DEBUG_VALUE: SPIM_HYPER_INIT_DLL:u32TRIMNUM <- $r3
	@DEBUG_VALUE: SPIM_HYPER_INIT_DLL:u32DllLockUs <- 20
	@DEBUG_VALUE: SPIM_HYPER_INIT_DLL:u32DllValidUs <- 50
	@DEBUG_VALUE: SPIM_HYPER_INIT_DLL:u32DllClkOnUs <- 20
	@DEBUG_VALUE: SPIM_HYPER_INIT_DLL:u32DllTrimUs <- 20
	@DEBUG_VALUE: SPIM_HYPER_INIT_DLL:u32BusClkHz <- $r8
	@DEBUG_VALUE: SPIM_HYPER_INIT_DLL:i32TimeoutCount <- [DW_OP_plus_uconst 4, DW_OP_deref] $sp
	@DEBUG_VALUE: SPIM_HYPER_INIT_DLL:spim <- $r4
	.loc	6 4266 19                       @ ../../../../Library/StdDriver/inc\sys.h:4266:19
	ldr	r5, [r1]
.Ltmp635:
	.loc	6 4266 5 is_stmt 0              @ ../../../../Library/StdDriver/inc\sys.h:4266:5
	cbnz	r5, .LBB16_15
	le	.LBB16_7
.Ltmp636:
.LBB16_15:
	@DEBUG_VALUE: SPIM_HYPER_INIT_DLL:u32DLLOVNUM <- $lr
	@DEBUG_VALUE: SPIM_HYPER_INIT_DLL:u32DllDivCode <- $r10
	@DEBUG_VALUE: SPIM_HYPER_INIT_DLL:u32DLLLKNUM <- $r3
	@DEBUG_VALUE: SPIM_HYPER_INIT_DLL:u32CLKONNUM <- $r3
	@DEBUG_VALUE: SPIM_HYPER_INIT_DLL:u32TRIMNUM <- $r3
	@DEBUG_VALUE: SPIM_HYPER_INIT_DLL:u32DllLockUs <- 20
	@DEBUG_VALUE: SPIM_HYPER_INIT_DLL:u32DllValidUs <- 50
	@DEBUG_VALUE: SPIM_HYPER_INIT_DLL:u32DllClkOnUs <- 20
	@DEBUG_VALUE: SPIM_HYPER_INIT_DLL:u32DllTrimUs <- 20
	@DEBUG_VALUE: SPIM_HYPER_INIT_DLL:u32BusClkHz <- $r8
	@DEBUG_VALUE: SPIM_HYPER_INIT_DLL:i32TimeoutCount <- [DW_OP_plus_uconst 4, DW_OP_deref] $sp
	@DEBUG_VALUE: SPIM_HYPER_INIT_DLL:spim <- $r4
	.loc	5 560 5 is_stmt 1               @ ../../../../Library/StdDriver/src/spim_hyper.c:560:5
	ldr	r0, [r4, #108]
	movw	r2, #65535
	pkhbt	r0, r0, r3, lsl #16
	str	r0, [r4, #108]
	.loc	5 561 5                         @ ../../../../Library/StdDriver/src/spim_hyper.c:561:5
	ldr	r0, [r4, #108]
	bics	r0, r2
	movw	r2, #9023
	orr.w	r0, r0, lr
	movw	lr, #3972
.Ltmp637:
	str	r0, [r4, #108]
	.loc	5 562 5                         @ ../../../../Library/StdDriver/src/spim_hyper.c:562:5
	ldr	r0, [r4, #112]
	movt	lr, #16384
	pkhbt	r0, r0, r3, lsl #16
	movt	r2, #1541
	str	r0, [r4, #112]
	.loc	5 563 5                         @ ../../../../Library/StdDriver/src/spim_hyper.c:563:5
	ldr	r0, [r4, #112]
	.loc	5 570 5                         @ ../../../../Library/StdDriver/src/spim_hyper.c:570:5
	cmp	r8, r2
	.loc	5 563 5                         @ ../../../../Library/StdDriver/src/spim_hyper.c:563:5
	bfc	r0, #0, #16
	orr.w	r0, r0, r3
	str	r0, [r4, #112]
.Ltmp638:
	.loc	5 566 5                         @ ../../../../Library/StdDriver/src/spim_hyper.c:566:5
	ldr.w	r0, [lr]
	bic	r0, r0, #512
.Ltmp639:
	@DEBUG_VALUE: u32Value <- $r0
	str.w	r0, [lr]
.Ltmp640:
	.loc	5 569 5                         @ ../../../../Library/StdDriver/src/spim_hyper.c:569:5
	ldr	r0, [r4, #104]
.Ltmp641:
	bic	r0, r0, #3145728
	orr.w	r0, r0, r10
	str	r0, [r4, #104]
	.loc	5 570 5                         @ ../../../../Library/StdDriver/src/spim_hyper.c:570:5
	ldr	r0, [r4, #104]
	bic	r0, r0, #12582912
	it	hi
	addhi.w	r0, r0, #4194304
	str	r0, [r4, #104]
	.loc	5 571 5                         @ ../../../../Library/StdDriver/src/spim_hyper.c:571:5
	ldr	r0, [r4, #104]
	orr	r0, r0, #1
	str	r0, [r4, #104]
	.loc	5 574 5                         @ ../../../../Library/StdDriver/src/spim_hyper.c:574:5
	ldr	r0, [r4, #104]
	orr	r0, r0, #262144
	str	r0, [r4, #104]
	.loc	5 575 5                         @ ../../../../Library/StdDriver/src/spim_hyper.c:575:5
	ldr	r0, [r4, #104]
	orr	r0, r0, #65536
	str	r0, [r4, #104]
	.loc	5 579 5                         @ ../../../../Library/StdDriver/src/spim_hyper.c:579:5
	ldr	r0, [r4, #104]
	orr	r0, r0, #2
	str	r0, [r4, #104]
	.loc	5 582 23                        @ ../../../../Library/StdDriver/src/spim_hyper.c:582:23
	ldr.w	r2, [r9]
	.loc	5 582 21 is_stmt 0              @ ../../../../Library/StdDriver/src/spim_hyper.c:582:21
	str	r2, [sp, #4]
	@DEBUG_VALUE: SPIM_HYPER_INIT_DLL:i32TimeoutCount <- [DW_OP_plus_uconst 4, DW_OP_deref] $sp
.Ltmp642:
.LBB16_16:                              @ =>This Inner Loop Header: Depth=1
	@DEBUG_VALUE: SPIM_HYPER_INIT_DLL:u32DllDivCode <- $r10
	@DEBUG_VALUE: SPIM_HYPER_INIT_DLL:u32DllLockUs <- 20
	@DEBUG_VALUE: SPIM_HYPER_INIT_DLL:u32DllValidUs <- 50
	@DEBUG_VALUE: SPIM_HYPER_INIT_DLL:u32DllClkOnUs <- 20
	@DEBUG_VALUE: SPIM_HYPER_INIT_DLL:u32DllTrimUs <- 20
	@DEBUG_VALUE: SPIM_HYPER_INIT_DLL:u32BusClkHz <- $r8
	@DEBUG_VALUE: SPIM_HYPER_INIT_DLL:i32TimeoutCount <- [DW_OP_plus_uconst 4, DW_OP_deref] $sp
	@DEBUG_VALUE: SPIM_HYPER_INIT_DLL:spim <- $r4
	.loc	5 584 12 is_stmt 1              @ ../../../../Library/StdDriver/src/spim_hyper.c:584:12
	ldr	r0, [r4, #104]
	.loc	5 584 5 is_stmt 0               @ ../../../../Library/StdDriver/src/spim_hyper.c:584:5
	lsls	r0, r0, #30
	bpl	.LBB16_24
.Ltmp643:
@ %bb.17:                               @   in Loop: Header=BB16_16 Depth=1
	@DEBUG_VALUE: SPIM_HYPER_INIT_DLL:u32DllDivCode <- $r10
	@DEBUG_VALUE: SPIM_HYPER_INIT_DLL:u32DllLockUs <- 20
	@DEBUG_VALUE: SPIM_HYPER_INIT_DLL:u32DllValidUs <- 50
	@DEBUG_VALUE: SPIM_HYPER_INIT_DLL:u32DllClkOnUs <- 20
	@DEBUG_VALUE: SPIM_HYPER_INIT_DLL:u32DllTrimUs <- 20
	@DEBUG_VALUE: SPIM_HYPER_INIT_DLL:u32BusClkHz <- $r8
	@DEBUG_VALUE: SPIM_HYPER_INIT_DLL:i32TimeoutCount <- [DW_OP_plus_uconst 4, DW_OP_deref] $sp
	@DEBUG_VALUE: SPIM_HYPER_INIT_DLL:spim <- $r4
	.loc	5 585 13 is_stmt 1              @ ../../../../Library/StdDriver/src/spim_hyper.c:585:13
	ldr	r0, [sp, #4]
	subs	r3, r0, #1
.Ltmp644:
	.loc	5 585 13 is_stmt 0              @ ../../../../Library/StdDriver/src/spim_hyper.c:585:13
	cmp	r0, #2
.Ltmp645:
	@DEBUG_VALUE: SPIM_HYPER_INIT_DLL:i32TimeoutCount <- [DW_OP_constu 1, DW_OP_minus, DW_OP_stack_value] undef
	.loc	5 585 13                        @ ../../../../Library/StdDriver/src/spim_hyper.c:585:13
	str	r3, [sp, #4]
.Ltmp646:
	.loc	5 585 13                        @ ../../../../Library/StdDriver/src/spim_hyper.c:585:13
	blt	.LBB16_42
.Ltmp647:
@ %bb.18:                               @   in Loop: Header=BB16_16 Depth=1
	@DEBUG_VALUE: SPIM_HYPER_INIT_DLL:u32DllDivCode <- $r10
	@DEBUG_VALUE: SPIM_HYPER_INIT_DLL:u32DllLockUs <- 20
	@DEBUG_VALUE: SPIM_HYPER_INIT_DLL:u32DllValidUs <- 50
	@DEBUG_VALUE: SPIM_HYPER_INIT_DLL:u32DllClkOnUs <- 20
	@DEBUG_VALUE: SPIM_HYPER_INIT_DLL:u32DllTrimUs <- 20
	@DEBUG_VALUE: SPIM_HYPER_INIT_DLL:u32BusClkHz <- $r8
	@DEBUG_VALUE: SPIM_HYPER_INIT_DLL:spim <- $r4
	.loc	5 584 12 is_stmt 1              @ ../../../../Library/StdDriver/src/spim_hyper.c:584:12
	ldr	r0, [r4, #104]
	.loc	5 584 5 is_stmt 0               @ ../../../../Library/StdDriver/src/spim_hyper.c:584:5
	lsls	r0, r0, #30
	bpl	.LBB16_24
.Ltmp648:
@ %bb.19:                               @   in Loop: Header=BB16_16 Depth=1
	@DEBUG_VALUE: SPIM_HYPER_INIT_DLL:u32DllDivCode <- $r10
	@DEBUG_VALUE: SPIM_HYPER_INIT_DLL:u32DllLockUs <- 20
	@DEBUG_VALUE: SPIM_HYPER_INIT_DLL:u32DllValidUs <- 50
	@DEBUG_VALUE: SPIM_HYPER_INIT_DLL:u32DllClkOnUs <- 20
	@DEBUG_VALUE: SPIM_HYPER_INIT_DLL:u32DllTrimUs <- 20
	@DEBUG_VALUE: SPIM_HYPER_INIT_DLL:u32BusClkHz <- $r8
	@DEBUG_VALUE: SPIM_HYPER_INIT_DLL:spim <- $r4
	.loc	5 585 13 is_stmt 1              @ ../../../../Library/StdDriver/src/spim_hyper.c:585:13
	ldr	r0, [sp, #4]
	subs	r3, r0, #1
.Ltmp649:
	.loc	5 585 13 is_stmt 0              @ ../../../../Library/StdDriver/src/spim_hyper.c:585:13
	cmp	r0, #2
.Ltmp650:
	@DEBUG_VALUE: SPIM_HYPER_INIT_DLL:i32TimeoutCount <- [DW_OP_constu 1, DW_OP_minus, DW_OP_stack_value] undef
	.loc	5 585 13                        @ ../../../../Library/StdDriver/src/spim_hyper.c:585:13
	str	r3, [sp, #4]
.Ltmp651:
	.loc	5 585 13                        @ ../../../../Library/StdDriver/src/spim_hyper.c:585:13
	blt	.LBB16_42
.Ltmp652:
@ %bb.20:                               @   in Loop: Header=BB16_16 Depth=1
	@DEBUG_VALUE: SPIM_HYPER_INIT_DLL:u32DllDivCode <- $r10
	@DEBUG_VALUE: SPIM_HYPER_INIT_DLL:u32DllLockUs <- 20
	@DEBUG_VALUE: SPIM_HYPER_INIT_DLL:u32DllValidUs <- 50
	@DEBUG_VALUE: SPIM_HYPER_INIT_DLL:u32DllClkOnUs <- 20
	@DEBUG_VALUE: SPIM_HYPER_INIT_DLL:u32DllTrimUs <- 20
	@DEBUG_VALUE: SPIM_HYPER_INIT_DLL:u32BusClkHz <- $r8
	@DEBUG_VALUE: SPIM_HYPER_INIT_DLL:spim <- $r4
	.loc	5 584 12 is_stmt 1              @ ../../../../Library/StdDriver/src/spim_hyper.c:584:12
	ldr	r0, [r4, #104]
	.loc	5 584 5 is_stmt 0               @ ../../../../Library/StdDriver/src/spim_hyper.c:584:5
	lsls	r0, r0, #30
	bpl	.LBB16_24
.Ltmp653:
@ %bb.21:                               @   in Loop: Header=BB16_16 Depth=1
	@DEBUG_VALUE: SPIM_HYPER_INIT_DLL:u32DllDivCode <- $r10
	@DEBUG_VALUE: SPIM_HYPER_INIT_DLL:u32DllLockUs <- 20
	@DEBUG_VALUE: SPIM_HYPER_INIT_DLL:u32DllValidUs <- 50
	@DEBUG_VALUE: SPIM_HYPER_INIT_DLL:u32DllClkOnUs <- 20
	@DEBUG_VALUE: SPIM_HYPER_INIT_DLL:u32DllTrimUs <- 20
	@DEBUG_VALUE: SPIM_HYPER_INIT_DLL:u32BusClkHz <- $r8
	@DEBUG_VALUE: SPIM_HYPER_INIT_DLL:spim <- $r4
	.loc	5 585 13 is_stmt 1              @ ../../../../Library/StdDriver/src/spim_hyper.c:585:13
	ldr	r0, [sp, #4]
	subs	r3, r0, #1
.Ltmp654:
	.loc	5 585 13 is_stmt 0              @ ../../../../Library/StdDriver/src/spim_hyper.c:585:13
	cmp	r0, #2
.Ltmp655:
	@DEBUG_VALUE: SPIM_HYPER_INIT_DLL:i32TimeoutCount <- [DW_OP_constu 1, DW_OP_minus, DW_OP_stack_value] undef
	.loc	5 585 13                        @ ../../../../Library/StdDriver/src/spim_hyper.c:585:13
	str	r3, [sp, #4]
.Ltmp656:
	.loc	5 585 13                        @ ../../../../Library/StdDriver/src/spim_hyper.c:585:13
	blt	.LBB16_42
.Ltmp657:
@ %bb.22:                               @   in Loop: Header=BB16_16 Depth=1
	@DEBUG_VALUE: SPIM_HYPER_INIT_DLL:u32DllDivCode <- $r10
	@DEBUG_VALUE: SPIM_HYPER_INIT_DLL:u32DllLockUs <- 20
	@DEBUG_VALUE: SPIM_HYPER_INIT_DLL:u32DllValidUs <- 50
	@DEBUG_VALUE: SPIM_HYPER_INIT_DLL:u32DllClkOnUs <- 20
	@DEBUG_VALUE: SPIM_HYPER_INIT_DLL:u32DllTrimUs <- 20
	@DEBUG_VALUE: SPIM_HYPER_INIT_DLL:u32BusClkHz <- $r8
	@DEBUG_VALUE: SPIM_HYPER_INIT_DLL:spim <- $r4
	.loc	5 584 12 is_stmt 1              @ ../../../../Library/StdDriver/src/spim_hyper.c:584:12
	ldr	r0, [r4, #104]
	.loc	5 584 5 is_stmt 0               @ ../../../../Library/StdDriver/src/spim_hyper.c:584:5
	lsls	r0, r0, #30
	bpl	.LBB16_24
.Ltmp658:
@ %bb.23:                               @   in Loop: Header=BB16_16 Depth=1
	@DEBUG_VALUE: SPIM_HYPER_INIT_DLL:u32DllDivCode <- $r10
	@DEBUG_VALUE: SPIM_HYPER_INIT_DLL:u32DllLockUs <- 20
	@DEBUG_VALUE: SPIM_HYPER_INIT_DLL:u32DllValidUs <- 50
	@DEBUG_VALUE: SPIM_HYPER_INIT_DLL:u32DllClkOnUs <- 20
	@DEBUG_VALUE: SPIM_HYPER_INIT_DLL:u32DllTrimUs <- 20
	@DEBUG_VALUE: SPIM_HYPER_INIT_DLL:u32BusClkHz <- $r8
	@DEBUG_VALUE: SPIM_HYPER_INIT_DLL:spim <- $r4
	.loc	5 585 13 is_stmt 1              @ ../../../../Library/StdDriver/src/spim_hyper.c:585:13
	ldr	r0, [sp, #4]
	subs	r3, r0, #1
.Ltmp659:
	.loc	5 585 13 is_stmt 0              @ ../../../../Library/StdDriver/src/spim_hyper.c:585:13
	cmp	r0, #2
.Ltmp660:
	.loc	5 585 13                        @ ../../../../Library/StdDriver/src/spim_hyper.c:585:13
	str	r3, [sp, #4]
.Ltmp661:
	@DEBUG_VALUE: SPIM_HYPER_INIT_DLL:i32TimeoutCount <- [DW_OP_plus_uconst 4, DW_OP_deref] $sp
	.loc	5 585 13                        @ ../../../../Library/StdDriver/src/spim_hyper.c:585:13
	bge	.LBB16_16
	b	.LBB16_42
.Ltmp662:
.LBB16_24:
	@DEBUG_VALUE: SPIM_HYPER_INIT_DLL:u32DllDivCode <- $r10
	@DEBUG_VALUE: SPIM_HYPER_INIT_DLL:u32DllLockUs <- 20
	@DEBUG_VALUE: SPIM_HYPER_INIT_DLL:u32DllValidUs <- 50
	@DEBUG_VALUE: SPIM_HYPER_INIT_DLL:u32DllClkOnUs <- 20
	@DEBUG_VALUE: SPIM_HYPER_INIT_DLL:u32DllTrimUs <- 20
	@DEBUG_VALUE: SPIM_HYPER_INIT_DLL:u32BusClkHz <- $r8
	@DEBUG_VALUE: SPIM_HYPER_INIT_DLL:spim <- $r4
	.loc	5 588 21 is_stmt 1              @ ../../../../Library/StdDriver/src/spim_hyper.c:588:21
	str	r2, [sp, #4]
.Ltmp663:
	@DEBUG_VALUE: SPIM_HYPER_INIT_DLL:i32TimeoutCount <- [DW_OP_plus_uconst 4, DW_OP_deref] $sp
.LBB16_25:                              @ =>This Inner Loop Header: Depth=1
	@DEBUG_VALUE: SPIM_HYPER_INIT_DLL:u32DllDivCode <- $r10
	@DEBUG_VALUE: SPIM_HYPER_INIT_DLL:u32DllLockUs <- 20
	@DEBUG_VALUE: SPIM_HYPER_INIT_DLL:u32DllValidUs <- 50
	@DEBUG_VALUE: SPIM_HYPER_INIT_DLL:u32DllClkOnUs <- 20
	@DEBUG_VALUE: SPIM_HYPER_INIT_DLL:u32DllTrimUs <- 20
	@DEBUG_VALUE: SPIM_HYPER_INIT_DLL:u32BusClkHz <- $r8
	@DEBUG_VALUE: SPIM_HYPER_INIT_DLL:i32TimeoutCount <- [DW_OP_plus_uconst 4, DW_OP_deref] $sp
	@DEBUG_VALUE: SPIM_HYPER_INIT_DLL:spim <- $r4
	.loc	5 590 12                        @ ../../../../Library/StdDriver/src/spim_hyper.c:590:12
	ldr	r0, [r4, #104]
	.loc	5 590 5 is_stmt 0               @ ../../../../Library/StdDriver/src/spim_hyper.c:590:5
	lsls	r0, r0, #29
	bmi	.LBB16_33
.Ltmp664:
@ %bb.26:                               @   in Loop: Header=BB16_25 Depth=1
	@DEBUG_VALUE: SPIM_HYPER_INIT_DLL:u32DllDivCode <- $r10
	@DEBUG_VALUE: SPIM_HYPER_INIT_DLL:u32DllLockUs <- 20
	@DEBUG_VALUE: SPIM_HYPER_INIT_DLL:u32DllValidUs <- 50
	@DEBUG_VALUE: SPIM_HYPER_INIT_DLL:u32DllClkOnUs <- 20
	@DEBUG_VALUE: SPIM_HYPER_INIT_DLL:u32DllTrimUs <- 20
	@DEBUG_VALUE: SPIM_HYPER_INIT_DLL:u32BusClkHz <- $r8
	@DEBUG_VALUE: SPIM_HYPER_INIT_DLL:i32TimeoutCount <- [DW_OP_plus_uconst 4, DW_OP_deref] $sp
	@DEBUG_VALUE: SPIM_HYPER_INIT_DLL:spim <- $r4
	.loc	5 591 13 is_stmt 1              @ ../../../../Library/StdDriver/src/spim_hyper.c:591:13
	ldr	r0, [sp, #4]
	subs	r3, r0, #1
.Ltmp665:
	.loc	5 591 13 is_stmt 0              @ ../../../../Library/StdDriver/src/spim_hyper.c:591:13
	cmp	r0, #2
.Ltmp666:
	@DEBUG_VALUE: SPIM_HYPER_INIT_DLL:i32TimeoutCount <- [DW_OP_constu 1, DW_OP_minus, DW_OP_stack_value] undef
	.loc	5 591 13                        @ ../../../../Library/StdDriver/src/spim_hyper.c:591:13
	str	r3, [sp, #4]
.Ltmp667:
	.loc	5 591 13                        @ ../../../../Library/StdDriver/src/spim_hyper.c:591:13
	blt	.LBB16_42
.Ltmp668:
@ %bb.27:                               @   in Loop: Header=BB16_25 Depth=1
	@DEBUG_VALUE: SPIM_HYPER_INIT_DLL:u32DllDivCode <- $r10
	@DEBUG_VALUE: SPIM_HYPER_INIT_DLL:u32DllLockUs <- 20
	@DEBUG_VALUE: SPIM_HYPER_INIT_DLL:u32DllValidUs <- 50
	@DEBUG_VALUE: SPIM_HYPER_INIT_DLL:u32DllClkOnUs <- 20
	@DEBUG_VALUE: SPIM_HYPER_INIT_DLL:u32DllTrimUs <- 20
	@DEBUG_VALUE: SPIM_HYPER_INIT_DLL:u32BusClkHz <- $r8
	@DEBUG_VALUE: SPIM_HYPER_INIT_DLL:spim <- $r4
	.loc	5 590 12 is_stmt 1              @ ../../../../Library/StdDriver/src/spim_hyper.c:590:12
	ldr	r0, [r4, #104]
	.loc	5 590 5 is_stmt 0               @ ../../../../Library/StdDriver/src/spim_hyper.c:590:5
	lsls	r0, r0, #29
	bmi	.LBB16_33
.Ltmp669:
@ %bb.28:                               @   in Loop: Header=BB16_25 Depth=1
	@DEBUG_VALUE: SPIM_HYPER_INIT_DLL:u32DllDivCode <- $r10
	@DEBUG_VALUE: SPIM_HYPER_INIT_DLL:u32DllLockUs <- 20
	@DEBUG_VALUE: SPIM_HYPER_INIT_DLL:u32DllValidUs <- 50
	@DEBUG_VALUE: SPIM_HYPER_INIT_DLL:u32DllClkOnUs <- 20
	@DEBUG_VALUE: SPIM_HYPER_INIT_DLL:u32DllTrimUs <- 20
	@DEBUG_VALUE: SPIM_HYPER_INIT_DLL:u32BusClkHz <- $r8
	@DEBUG_VALUE: SPIM_HYPER_INIT_DLL:spim <- $r4
	.loc	5 591 13 is_stmt 1              @ ../../../../Library/StdDriver/src/spim_hyper.c:591:13
	ldr	r0, [sp, #4]
	subs	r3, r0, #1
.Ltmp670:
	.loc	5 591 13 is_stmt 0              @ ../../../../Library/StdDriver/src/spim_hyper.c:591:13
	cmp	r0, #2
.Ltmp671:
	@DEBUG_VALUE: SPIM_HYPER_INIT_DLL:i32TimeoutCount <- [DW_OP_constu 1, DW_OP_minus, DW_OP_stack_value] undef
	.loc	5 591 13                        @ ../../../../Library/StdDriver/src/spim_hyper.c:591:13
	str	r3, [sp, #4]
.Ltmp672:
	.loc	5 591 13                        @ ../../../../Library/StdDriver/src/spim_hyper.c:591:13
	blt	.LBB16_42
.Ltmp673:
@ %bb.29:                               @   in Loop: Header=BB16_25 Depth=1
	@DEBUG_VALUE: SPIM_HYPER_INIT_DLL:u32DllDivCode <- $r10
	@DEBUG_VALUE: SPIM_HYPER_INIT_DLL:u32DllLockUs <- 20
	@DEBUG_VALUE: SPIM_HYPER_INIT_DLL:u32DllValidUs <- 50
	@DEBUG_VALUE: SPIM_HYPER_INIT_DLL:u32DllClkOnUs <- 20
	@DEBUG_VALUE: SPIM_HYPER_INIT_DLL:u32DllTrimUs <- 20
	@DEBUG_VALUE: SPIM_HYPER_INIT_DLL:u32BusClkHz <- $r8
	@DEBUG_VALUE: SPIM_HYPER_INIT_DLL:spim <- $r4
	.loc	5 590 12 is_stmt 1              @ ../../../../Library/StdDriver/src/spim_hyper.c:590:12
	ldr	r0, [r4, #104]
	.loc	5 590 5 is_stmt 0               @ ../../../../Library/StdDriver/src/spim_hyper.c:590:5
	lsls	r0, r0, #29
	bmi	.LBB16_33
.Ltmp674:
@ %bb.30:                               @   in Loop: Header=BB16_25 Depth=1
	@DEBUG_VALUE: SPIM_HYPER_INIT_DLL:u32DllDivCode <- $r10
	@DEBUG_VALUE: SPIM_HYPER_INIT_DLL:u32DllLockUs <- 20
	@DEBUG_VALUE: SPIM_HYPER_INIT_DLL:u32DllValidUs <- 50
	@DEBUG_VALUE: SPIM_HYPER_INIT_DLL:u32DllClkOnUs <- 20
	@DEBUG_VALUE: SPIM_HYPER_INIT_DLL:u32DllTrimUs <- 20
	@DEBUG_VALUE: SPIM_HYPER_INIT_DLL:u32BusClkHz <- $r8
	@DEBUG_VALUE: SPIM_HYPER_INIT_DLL:spim <- $r4
	.loc	5 591 13 is_stmt 1              @ ../../../../Library/StdDriver/src/spim_hyper.c:591:13
	ldr	r0, [sp, #4]
	subs	r3, r0, #1
.Ltmp675:
	.loc	5 591 13 is_stmt 0              @ ../../../../Library/StdDriver/src/spim_hyper.c:591:13
	cmp	r0, #2
.Ltmp676:
	@DEBUG_VALUE: SPIM_HYPER_INIT_DLL:i32TimeoutCount <- [DW_OP_constu 1, DW_OP_minus, DW_OP_stack_value] undef
	.loc	5 591 13                        @ ../../../../Library/StdDriver/src/spim_hyper.c:591:13
	str	r3, [sp, #4]
.Ltmp677:
	.loc	5 591 13                        @ ../../../../Library/StdDriver/src/spim_hyper.c:591:13
	blt	.LBB16_42
.Ltmp678:
@ %bb.31:                               @   in Loop: Header=BB16_25 Depth=1
	@DEBUG_VALUE: SPIM_HYPER_INIT_DLL:u32DllDivCode <- $r10
	@DEBUG_VALUE: SPIM_HYPER_INIT_DLL:u32DllLockUs <- 20
	@DEBUG_VALUE: SPIM_HYPER_INIT_DLL:u32DllValidUs <- 50
	@DEBUG_VALUE: SPIM_HYPER_INIT_DLL:u32DllClkOnUs <- 20
	@DEBUG_VALUE: SPIM_HYPER_INIT_DLL:u32DllTrimUs <- 20
	@DEBUG_VALUE: SPIM_HYPER_INIT_DLL:u32BusClkHz <- $r8
	@DEBUG_VALUE: SPIM_HYPER_INIT_DLL:spim <- $r4
	.loc	5 590 12 is_stmt 1              @ ../../../../Library/StdDriver/src/spim_hyper.c:590:12
	ldr	r0, [r4, #104]
	.loc	5 590 5 is_stmt 0               @ ../../../../Library/StdDriver/src/spim_hyper.c:590:5
	lsls	r0, r0, #29
	bmi	.LBB16_33
.Ltmp679:
@ %bb.32:                               @   in Loop: Header=BB16_25 Depth=1
	@DEBUG_VALUE: SPIM_HYPER_INIT_DLL:u32DllDivCode <- $r10
	@DEBUG_VALUE: SPIM_HYPER_INIT_DLL:u32DllLockUs <- 20
	@DEBUG_VALUE: SPIM_HYPER_INIT_DLL:u32DllValidUs <- 50
	@DEBUG_VALUE: SPIM_HYPER_INIT_DLL:u32DllClkOnUs <- 20
	@DEBUG_VALUE: SPIM_HYPER_INIT_DLL:u32DllTrimUs <- 20
	@DEBUG_VALUE: SPIM_HYPER_INIT_DLL:u32BusClkHz <- $r8
	@DEBUG_VALUE: SPIM_HYPER_INIT_DLL:spim <- $r4
	.loc	5 591 13 is_stmt 1              @ ../../../../Library/StdDriver/src/spim_hyper.c:591:13
	ldr	r0, [sp, #4]
	subs	r3, r0, #1
.Ltmp680:
	.loc	5 591 13 is_stmt 0              @ ../../../../Library/StdDriver/src/spim_hyper.c:591:13
	cmp	r0, #2
.Ltmp681:
	.loc	5 591 13                        @ ../../../../Library/StdDriver/src/spim_hyper.c:591:13
	str	r3, [sp, #4]
.Ltmp682:
	@DEBUG_VALUE: SPIM_HYPER_INIT_DLL:i32TimeoutCount <- [DW_OP_plus_uconst 4, DW_OP_deref] $sp
	.loc	5 0 13                          @ ../../../../Library/StdDriver/src/spim_hyper.c:0:13
	bge	.LBB16_25
	b	.LBB16_42
.Ltmp683:
.LBB16_33:
	@DEBUG_VALUE: SPIM_HYPER_INIT_DLL:u32DllDivCode <- $r10
	@DEBUG_VALUE: SPIM_HYPER_INIT_DLL:u32DllLockUs <- 20
	@DEBUG_VALUE: SPIM_HYPER_INIT_DLL:u32DllValidUs <- 50
	@DEBUG_VALUE: SPIM_HYPER_INIT_DLL:u32DllClkOnUs <- 20
	@DEBUG_VALUE: SPIM_HYPER_INIT_DLL:u32DllTrimUs <- 20
	@DEBUG_VALUE: SPIM_HYPER_INIT_DLL:u32BusClkHz <- $r8
	@DEBUG_VALUE: SPIM_HYPER_INIT_DLL:spim <- $r4
	.loc	5 594 21 is_stmt 1              @ ../../../../Library/StdDriver/src/spim_hyper.c:594:21
	str	r2, [sp, #4]
.Ltmp684:
	@DEBUG_VALUE: SPIM_HYPER_INIT_DLL:i32TimeoutCount <- [DW_OP_plus_uconst 4, DW_OP_deref] $sp
.LBB16_34:                              @ =>This Inner Loop Header: Depth=1
	@DEBUG_VALUE: SPIM_HYPER_INIT_DLL:u32DllDivCode <- $r10
	@DEBUG_VALUE: SPIM_HYPER_INIT_DLL:u32DllLockUs <- 20
	@DEBUG_VALUE: SPIM_HYPER_INIT_DLL:u32DllValidUs <- 50
	@DEBUG_VALUE: SPIM_HYPER_INIT_DLL:u32DllClkOnUs <- 20
	@DEBUG_VALUE: SPIM_HYPER_INIT_DLL:u32DllTrimUs <- 20
	@DEBUG_VALUE: SPIM_HYPER_INIT_DLL:u32BusClkHz <- $r8
	@DEBUG_VALUE: SPIM_HYPER_INIT_DLL:i32TimeoutCount <- [DW_OP_plus_uconst 4, DW_OP_deref] $sp
	@DEBUG_VALUE: SPIM_HYPER_INIT_DLL:spim <- $r4
	.loc	5 596 12                        @ ../../../../Library/StdDriver/src/spim_hyper.c:596:12
	ldr	r0, [r4, #104]
	.loc	5 596 5 is_stmt 0               @ ../../../../Library/StdDriver/src/spim_hyper.c:596:5
	lsls	r0, r0, #28
	bmi	.LBB16_43
.Ltmp685:
@ %bb.35:                               @   in Loop: Header=BB16_34 Depth=1
	@DEBUG_VALUE: SPIM_HYPER_INIT_DLL:u32DllDivCode <- $r10
	@DEBUG_VALUE: SPIM_HYPER_INIT_DLL:u32DllLockUs <- 20
	@DEBUG_VALUE: SPIM_HYPER_INIT_DLL:u32DllValidUs <- 50
	@DEBUG_VALUE: SPIM_HYPER_INIT_DLL:u32DllClkOnUs <- 20
	@DEBUG_VALUE: SPIM_HYPER_INIT_DLL:u32DllTrimUs <- 20
	@DEBUG_VALUE: SPIM_HYPER_INIT_DLL:u32BusClkHz <- $r8
	@DEBUG_VALUE: SPIM_HYPER_INIT_DLL:i32TimeoutCount <- [DW_OP_plus_uconst 4, DW_OP_deref] $sp
	@DEBUG_VALUE: SPIM_HYPER_INIT_DLL:spim <- $r4
	.loc	5 597 13 is_stmt 1              @ ../../../../Library/StdDriver/src/spim_hyper.c:597:13
	ldr	r0, [sp, #4]
	subs	r3, r0, #1
.Ltmp686:
	.loc	5 597 13 is_stmt 0              @ ../../../../Library/StdDriver/src/spim_hyper.c:597:13
	cmp	r0, #2
.Ltmp687:
	@DEBUG_VALUE: SPIM_HYPER_INIT_DLL:i32TimeoutCount <- [DW_OP_constu 1, DW_OP_minus, DW_OP_stack_value] undef
	.loc	5 597 13                        @ ../../../../Library/StdDriver/src/spim_hyper.c:597:13
	str	r3, [sp, #4]
.Ltmp688:
	.loc	5 597 13                        @ ../../../../Library/StdDriver/src/spim_hyper.c:597:13
	blt	.LBB16_42
.Ltmp689:
@ %bb.36:                               @   in Loop: Header=BB16_34 Depth=1
	@DEBUG_VALUE: SPIM_HYPER_INIT_DLL:u32DllDivCode <- $r10
	@DEBUG_VALUE: SPIM_HYPER_INIT_DLL:u32DllLockUs <- 20
	@DEBUG_VALUE: SPIM_HYPER_INIT_DLL:u32DllValidUs <- 50
	@DEBUG_VALUE: SPIM_HYPER_INIT_DLL:u32DllClkOnUs <- 20
	@DEBUG_VALUE: SPIM_HYPER_INIT_DLL:u32DllTrimUs <- 20
	@DEBUG_VALUE: SPIM_HYPER_INIT_DLL:u32BusClkHz <- $r8
	@DEBUG_VALUE: SPIM_HYPER_INIT_DLL:spim <- $r4
	.loc	5 596 12 is_stmt 1              @ ../../../../Library/StdDriver/src/spim_hyper.c:596:12
	ldr	r0, [r4, #104]
	.loc	5 596 5 is_stmt 0               @ ../../../../Library/StdDriver/src/spim_hyper.c:596:5
	lsls	r0, r0, #28
	bmi	.LBB16_43
.Ltmp690:
@ %bb.37:                               @   in Loop: Header=BB16_34 Depth=1
	@DEBUG_VALUE: SPIM_HYPER_INIT_DLL:u32DllDivCode <- $r10
	@DEBUG_VALUE: SPIM_HYPER_INIT_DLL:u32DllLockUs <- 20
	@DEBUG_VALUE: SPIM_HYPER_INIT_DLL:u32DllValidUs <- 50
	@DEBUG_VALUE: SPIM_HYPER_INIT_DLL:u32DllClkOnUs <- 20
	@DEBUG_VALUE: SPIM_HYPER_INIT_DLL:u32DllTrimUs <- 20
	@DEBUG_VALUE: SPIM_HYPER_INIT_DLL:u32BusClkHz <- $r8
	@DEBUG_VALUE: SPIM_HYPER_INIT_DLL:spim <- $r4
	.loc	5 597 13 is_stmt 1              @ ../../../../Library/StdDriver/src/spim_hyper.c:597:13
	ldr	r0, [sp, #4]
	subs	r3, r0, #1
.Ltmp691:
	.loc	5 597 13 is_stmt 0              @ ../../../../Library/StdDriver/src/spim_hyper.c:597:13
	cmp	r0, #2
.Ltmp692:
	@DEBUG_VALUE: SPIM_HYPER_INIT_DLL:i32TimeoutCount <- [DW_OP_constu 1, DW_OP_minus, DW_OP_stack_value] undef
	.loc	5 597 13                        @ ../../../../Library/StdDriver/src/spim_hyper.c:597:13
	str	r3, [sp, #4]
.Ltmp693:
	.loc	5 597 13                        @ ../../../../Library/StdDriver/src/spim_hyper.c:597:13
	blt	.LBB16_42
.Ltmp694:
@ %bb.38:                               @   in Loop: Header=BB16_34 Depth=1
	@DEBUG_VALUE: SPIM_HYPER_INIT_DLL:u32DllDivCode <- $r10
	@DEBUG_VALUE: SPIM_HYPER_INIT_DLL:u32DllLockUs <- 20
	@DEBUG_VALUE: SPIM_HYPER_INIT_DLL:u32DllValidUs <- 50
	@DEBUG_VALUE: SPIM_HYPER_INIT_DLL:u32DllClkOnUs <- 20
	@DEBUG_VALUE: SPIM_HYPER_INIT_DLL:u32DllTrimUs <- 20
	@DEBUG_VALUE: SPIM_HYPER_INIT_DLL:u32BusClkHz <- $r8
	@DEBUG_VALUE: SPIM_HYPER_INIT_DLL:spim <- $r4
	.loc	5 596 12 is_stmt 1              @ ../../../../Library/StdDriver/src/spim_hyper.c:596:12
	ldr	r0, [r4, #104]
	.loc	5 596 5 is_stmt 0               @ ../../../../Library/StdDriver/src/spim_hyper.c:596:5
	lsls	r0, r0, #28
	bmi	.LBB16_43
.Ltmp695:
@ %bb.39:                               @   in Loop: Header=BB16_34 Depth=1
	@DEBUG_VALUE: SPIM_HYPER_INIT_DLL:u32DllDivCode <- $r10
	@DEBUG_VALUE: SPIM_HYPER_INIT_DLL:u32DllLockUs <- 20
	@DEBUG_VALUE: SPIM_HYPER_INIT_DLL:u32DllValidUs <- 50
	@DEBUG_VALUE: SPIM_HYPER_INIT_DLL:u32DllClkOnUs <- 20
	@DEBUG_VALUE: SPIM_HYPER_INIT_DLL:u32DllTrimUs <- 20
	@DEBUG_VALUE: SPIM_HYPER_INIT_DLL:u32BusClkHz <- $r8
	@DEBUG_VALUE: SPIM_HYPER_INIT_DLL:spim <- $r4
	.loc	5 597 13 is_stmt 1              @ ../../../../Library/StdDriver/src/spim_hyper.c:597:13
	ldr	r0, [sp, #4]
	subs	r3, r0, #1
.Ltmp696:
	.loc	5 597 13 is_stmt 0              @ ../../../../Library/StdDriver/src/spim_hyper.c:597:13
	cmp	r0, #2
.Ltmp697:
	@DEBUG_VALUE: SPIM_HYPER_INIT_DLL:i32TimeoutCount <- [DW_OP_constu 1, DW_OP_minus, DW_OP_stack_value] undef
	.loc	5 597 13                        @ ../../../../Library/StdDriver/src/spim_hyper.c:597:13
	str	r3, [sp, #4]
.Ltmp698:
	.loc	5 597 13                        @ ../../../../Library/StdDriver/src/spim_hyper.c:597:13
	blt	.LBB16_42
.Ltmp699:
@ %bb.40:                               @   in Loop: Header=BB16_34 Depth=1
	@DEBUG_VALUE: SPIM_HYPER_INIT_DLL:u32DllDivCode <- $r10
	@DEBUG_VALUE: SPIM_HYPER_INIT_DLL:u32DllLockUs <- 20
	@DEBUG_VALUE: SPIM_HYPER_INIT_DLL:u32DllValidUs <- 50
	@DEBUG_VALUE: SPIM_HYPER_INIT_DLL:u32DllClkOnUs <- 20
	@DEBUG_VALUE: SPIM_HYPER_INIT_DLL:u32DllTrimUs <- 20
	@DEBUG_VALUE: SPIM_HYPER_INIT_DLL:u32BusClkHz <- $r8
	@DEBUG_VALUE: SPIM_HYPER_INIT_DLL:spim <- $r4
	.loc	5 596 12 is_stmt 1              @ ../../../../Library/StdDriver/src/spim_hyper.c:596:12
	ldr	r0, [r4, #104]
	.loc	5 596 5 is_stmt 0               @ ../../../../Library/StdDriver/src/spim_hyper.c:596:5
	lsls	r0, r0, #28
	bmi	.LBB16_43
.Ltmp700:
@ %bb.41:                               @   in Loop: Header=BB16_34 Depth=1
	@DEBUG_VALUE: SPIM_HYPER_INIT_DLL:u32DllDivCode <- $r10
	@DEBUG_VALUE: SPIM_HYPER_INIT_DLL:u32DllLockUs <- 20
	@DEBUG_VALUE: SPIM_HYPER_INIT_DLL:u32DllValidUs <- 50
	@DEBUG_VALUE: SPIM_HYPER_INIT_DLL:u32DllClkOnUs <- 20
	@DEBUG_VALUE: SPIM_HYPER_INIT_DLL:u32DllTrimUs <- 20
	@DEBUG_VALUE: SPIM_HYPER_INIT_DLL:u32BusClkHz <- $r8
	@DEBUG_VALUE: SPIM_HYPER_INIT_DLL:spim <- $r4
	.loc	5 597 13 is_stmt 1              @ ../../../../Library/StdDriver/src/spim_hyper.c:597:13
	ldr	r0, [sp, #4]
	subs	r3, r0, #1
.Ltmp701:
	.loc	5 597 13 is_stmt 0              @ ../../../../Library/StdDriver/src/spim_hyper.c:597:13
	cmp	r0, #2
.Ltmp702:
	.loc	5 597 13                        @ ../../../../Library/StdDriver/src/spim_hyper.c:597:13
	str	r3, [sp, #4]
.Ltmp703:
	@DEBUG_VALUE: SPIM_HYPER_INIT_DLL:i32TimeoutCount <- [DW_OP_plus_uconst 4, DW_OP_deref] $sp
	.loc	5 597 13                        @ ../../../../Library/StdDriver/src/spim_hyper.c:597:13
	bge	.LBB16_34
.Ltmp704:
.LBB16_42:
	@DEBUG_VALUE: SPIM_HYPER_INIT_DLL:u32DllDivCode <- $r10
	@DEBUG_VALUE: SPIM_HYPER_INIT_DLL:u32DllLockUs <- 20
	@DEBUG_VALUE: SPIM_HYPER_INIT_DLL:u32DllValidUs <- 50
	@DEBUG_VALUE: SPIM_HYPER_INIT_DLL:u32DllClkOnUs <- 20
	@DEBUG_VALUE: SPIM_HYPER_INIT_DLL:u32DllTrimUs <- 20
	@DEBUG_VALUE: SPIM_HYPER_INIT_DLL:u32BusClkHz <- $r8
	@DEBUG_VALUE: SPIM_HYPER_INIT_DLL:spim <- $r4
	.loc	5 0 13                          @ ../../../../Library/StdDriver/src/spim_hyper.c:0:13
	mvn	r0, #1
	.loc	5 624 1 epilogue_begin is_stmt 1 @ ../../../../Library/StdDriver/src/spim_hyper.c:624:1
	add	sp, #8
	pop.w	{r4, r5, r6, r7, r8, r9, r10, pc}
.Ltmp705:
.LBB16_43:
	@DEBUG_VALUE: SPIM_HYPER_INIT_DLL:u32DllDivCode <- $r10
	@DEBUG_VALUE: SPIM_HYPER_INIT_DLL:u32DllLockUs <- 20
	@DEBUG_VALUE: SPIM_HYPER_INIT_DLL:u32DllValidUs <- 50
	@DEBUG_VALUE: SPIM_HYPER_INIT_DLL:u32DllClkOnUs <- 20
	@DEBUG_VALUE: SPIM_HYPER_INIT_DLL:u32DllTrimUs <- 20
	@DEBUG_VALUE: SPIM_HYPER_INIT_DLL:u32BusClkHz <- $r8
	@DEBUG_VALUE: SPIM_HYPER_INIT_DLL:spim <- $r4
	.loc	5 600 21                        @ ../../../../Library/StdDriver/src/spim_hyper.c:600:21
	str	r2, [sp, #4]
.Ltmp706:
	@DEBUG_VALUE: SPIM_HYPER_INIT_DLL:i32TimeoutCount <- [DW_OP_plus_uconst 4, DW_OP_deref] $sp
.LBB16_44:                              @ =>This Inner Loop Header: Depth=1
	@DEBUG_VALUE: SPIM_HYPER_INIT_DLL:u32DllDivCode <- $r10
	@DEBUG_VALUE: SPIM_HYPER_INIT_DLL:u32DllLockUs <- 20
	@DEBUG_VALUE: SPIM_HYPER_INIT_DLL:u32DllValidUs <- 50
	@DEBUG_VALUE: SPIM_HYPER_INIT_DLL:u32DllClkOnUs <- 20
	@DEBUG_VALUE: SPIM_HYPER_INIT_DLL:u32DllTrimUs <- 20
	@DEBUG_VALUE: SPIM_HYPER_INIT_DLL:u32BusClkHz <- $r8
	@DEBUG_VALUE: SPIM_HYPER_INIT_DLL:i32TimeoutCount <- [DW_OP_plus_uconst 4, DW_OP_deref] $sp
	@DEBUG_VALUE: SPIM_HYPER_INIT_DLL:spim <- $r4
	.loc	5 602 12                        @ ../../../../Library/StdDriver/src/spim_hyper.c:602:12
	ldr	r0, [r4, #104]
	.loc	5 602 5 is_stmt 0               @ ../../../../Library/StdDriver/src/spim_hyper.c:602:5
	lsls	r0, r0, #27
	bmi	.LBB16_52
.Ltmp707:
@ %bb.45:                               @   in Loop: Header=BB16_44 Depth=1
	@DEBUG_VALUE: SPIM_HYPER_INIT_DLL:u32DllDivCode <- $r10
	@DEBUG_VALUE: SPIM_HYPER_INIT_DLL:u32DllLockUs <- 20
	@DEBUG_VALUE: SPIM_HYPER_INIT_DLL:u32DllValidUs <- 50
	@DEBUG_VALUE: SPIM_HYPER_INIT_DLL:u32DllClkOnUs <- 20
	@DEBUG_VALUE: SPIM_HYPER_INIT_DLL:u32DllTrimUs <- 20
	@DEBUG_VALUE: SPIM_HYPER_INIT_DLL:u32BusClkHz <- $r8
	@DEBUG_VALUE: SPIM_HYPER_INIT_DLL:i32TimeoutCount <- [DW_OP_plus_uconst 4, DW_OP_deref] $sp
	@DEBUG_VALUE: SPIM_HYPER_INIT_DLL:spim <- $r4
	.loc	5 603 13 is_stmt 1              @ ../../../../Library/StdDriver/src/spim_hyper.c:603:13
	ldr	r0, [sp, #4]
	subs	r3, r0, #1
.Ltmp708:
	.loc	5 603 13 is_stmt 0              @ ../../../../Library/StdDriver/src/spim_hyper.c:603:13
	cmp	r0, #2
.Ltmp709:
	@DEBUG_VALUE: SPIM_HYPER_INIT_DLL:i32TimeoutCount <- [DW_OP_constu 1, DW_OP_minus, DW_OP_stack_value] undef
	.loc	5 603 13                        @ ../../../../Library/StdDriver/src/spim_hyper.c:603:13
	str	r3, [sp, #4]
.Ltmp710:
	.loc	5 603 13                        @ ../../../../Library/StdDriver/src/spim_hyper.c:603:13
	blt	.LBB16_42
.Ltmp711:
@ %bb.46:                               @   in Loop: Header=BB16_44 Depth=1
	@DEBUG_VALUE: SPIM_HYPER_INIT_DLL:u32DllDivCode <- $r10
	@DEBUG_VALUE: SPIM_HYPER_INIT_DLL:u32DllLockUs <- 20
	@DEBUG_VALUE: SPIM_HYPER_INIT_DLL:u32DllValidUs <- 50
	@DEBUG_VALUE: SPIM_HYPER_INIT_DLL:u32DllClkOnUs <- 20
	@DEBUG_VALUE: SPIM_HYPER_INIT_DLL:u32DllTrimUs <- 20
	@DEBUG_VALUE: SPIM_HYPER_INIT_DLL:u32BusClkHz <- $r8
	@DEBUG_VALUE: SPIM_HYPER_INIT_DLL:spim <- $r4
	.loc	5 602 12 is_stmt 1              @ ../../../../Library/StdDriver/src/spim_hyper.c:602:12
	ldr	r0, [r4, #104]
	.loc	5 602 5 is_stmt 0               @ ../../../../Library/StdDriver/src/spim_hyper.c:602:5
	lsls	r0, r0, #27
	bmi	.LBB16_52
.Ltmp712:
@ %bb.47:                               @   in Loop: Header=BB16_44 Depth=1
	@DEBUG_VALUE: SPIM_HYPER_INIT_DLL:u32DllDivCode <- $r10
	@DEBUG_VALUE: SPIM_HYPER_INIT_DLL:u32DllLockUs <- 20
	@DEBUG_VALUE: SPIM_HYPER_INIT_DLL:u32DllValidUs <- 50
	@DEBUG_VALUE: SPIM_HYPER_INIT_DLL:u32DllClkOnUs <- 20
	@DEBUG_VALUE: SPIM_HYPER_INIT_DLL:u32DllTrimUs <- 20
	@DEBUG_VALUE: SPIM_HYPER_INIT_DLL:u32BusClkHz <- $r8
	@DEBUG_VALUE: SPIM_HYPER_INIT_DLL:spim <- $r4
	.loc	5 603 13 is_stmt 1              @ ../../../../Library/StdDriver/src/spim_hyper.c:603:13
	ldr	r0, [sp, #4]
	subs	r3, r0, #1
.Ltmp713:
	.loc	5 603 13 is_stmt 0              @ ../../../../Library/StdDriver/src/spim_hyper.c:603:13
	cmp	r0, #2
.Ltmp714:
	@DEBUG_VALUE: SPIM_HYPER_INIT_DLL:i32TimeoutCount <- [DW_OP_constu 1, DW_OP_minus, DW_OP_stack_value] undef
	.loc	5 603 13                        @ ../../../../Library/StdDriver/src/spim_hyper.c:603:13
	str	r3, [sp, #4]
.Ltmp715:
	.loc	5 603 13                        @ ../../../../Library/StdDriver/src/spim_hyper.c:603:13
	blt	.LBB16_42
.Ltmp716:
@ %bb.48:                               @   in Loop: Header=BB16_44 Depth=1
	@DEBUG_VALUE: SPIM_HYPER_INIT_DLL:u32DllDivCode <- $r10
	@DEBUG_VALUE: SPIM_HYPER_INIT_DLL:u32DllLockUs <- 20
	@DEBUG_VALUE: SPIM_HYPER_INIT_DLL:u32DllValidUs <- 50
	@DEBUG_VALUE: SPIM_HYPER_INIT_DLL:u32DllClkOnUs <- 20
	@DEBUG_VALUE: SPIM_HYPER_INIT_DLL:u32DllTrimUs <- 20
	@DEBUG_VALUE: SPIM_HYPER_INIT_DLL:u32BusClkHz <- $r8
	@DEBUG_VALUE: SPIM_HYPER_INIT_DLL:spim <- $r4
	.loc	5 602 12 is_stmt 1              @ ../../../../Library/StdDriver/src/spim_hyper.c:602:12
	ldr	r0, [r4, #104]
	.loc	5 602 5 is_stmt 0               @ ../../../../Library/StdDriver/src/spim_hyper.c:602:5
	lsls	r0, r0, #27
	bmi	.LBB16_52
.Ltmp717:
@ %bb.49:                               @   in Loop: Header=BB16_44 Depth=1
	@DEBUG_VALUE: SPIM_HYPER_INIT_DLL:u32DllDivCode <- $r10
	@DEBUG_VALUE: SPIM_HYPER_INIT_DLL:u32DllLockUs <- 20
	@DEBUG_VALUE: SPIM_HYPER_INIT_DLL:u32DllValidUs <- 50
	@DEBUG_VALUE: SPIM_HYPER_INIT_DLL:u32DllClkOnUs <- 20
	@DEBUG_VALUE: SPIM_HYPER_INIT_DLL:u32DllTrimUs <- 20
	@DEBUG_VALUE: SPIM_HYPER_INIT_DLL:u32BusClkHz <- $r8
	@DEBUG_VALUE: SPIM_HYPER_INIT_DLL:spim <- $r4
	.loc	5 603 13 is_stmt 1              @ ../../../../Library/StdDriver/src/spim_hyper.c:603:13
	ldr	r0, [sp, #4]
	subs	r3, r0, #1
.Ltmp718:
	.loc	5 603 13 is_stmt 0              @ ../../../../Library/StdDriver/src/spim_hyper.c:603:13
	cmp	r0, #2
.Ltmp719:
	@DEBUG_VALUE: SPIM_HYPER_INIT_DLL:i32TimeoutCount <- [DW_OP_constu 1, DW_OP_minus, DW_OP_stack_value] undef
	.loc	5 603 13                        @ ../../../../Library/StdDriver/src/spim_hyper.c:603:13
	str	r3, [sp, #4]
.Ltmp720:
	.loc	5 603 13                        @ ../../../../Library/StdDriver/src/spim_hyper.c:603:13
	blt	.LBB16_42
.Ltmp721:
@ %bb.50:                               @   in Loop: Header=BB16_44 Depth=1
